ARM GAS  C:\Users\Jona\AppData\Local\Temp\cclCjSMS.s 			page 1


   1              		.syntax unified
   2              		.cpu cortex-m3
   3              		.fpu softvfp
   4              		.eabi_attribute 20, 1
   5              		.eabi_attribute 21, 1
   6              		.eabi_attribute 23, 3
   7              		.eabi_attribute 24, 1
   8              		.eabi_attribute 25, 1
   9              		.eabi_attribute 26, 1
  10              		.eabi_attribute 30, 1
  11              		.eabi_attribute 34, 1
  12              		.eabi_attribute 18, 4
  13              		.thumb
  14              		.syntax unified
  15              		.file	"BleCommunicatie.c"
  16              		.text
  17              	.Ltext0:
  18              		.cfi_sections	.debug_frame
  19              		.section	.text.DecToHex,"ax",%progbits
  20              		.align	2
  21              		.global	DecToHex
  22              		.thumb
  23              		.thumb_func
  24              		.type	DecToHex, %function
  25              	DecToHex:
  26              	.LFB67:
  27              		.file 1 "BleCommunicatie.c"
   1:BleCommunicatie.c **** /* ========================================
   2:BleCommunicatie.c ****  *
   3:BleCommunicatie.c ****  * Copyright YOUR COMPANY, THE YEAR
   4:BleCommunicatie.c ****  * All Rights Reserved
   5:BleCommunicatie.c ****  * UNPUBLISHED, LICENSED SOFTWARE.
   6:BleCommunicatie.c ****  *
   7:BleCommunicatie.c ****  * CONFIDENTIAL AND PROPRIETARY INFORMATION
   8:BleCommunicatie.c ****  * WHICH IS THE PROPERTY OF your company.
   9:BleCommunicatie.c ****  *
  10:BleCommunicatie.c ****  * ========================================
  11:BleCommunicatie.c **** */
  12:BleCommunicatie.c **** 
  13:BleCommunicatie.c **** #include "projectMain.h"
  14:BleCommunicatie.c **** #include "project.h"
  15:BleCommunicatie.c **** #include <string.h>
  16:BleCommunicatie.c **** //#include <stdlib.h> //atoi
  17:BleCommunicatie.c **** #include <stdio.h> 
  18:BleCommunicatie.c **** #include <myUART.h>
  19:BleCommunicatie.c ****  
  20:BleCommunicatie.c **** //Timer gestuurde interupt zodat data om de zoveel tijd verstuurd wordt via bluetooth
  21:BleCommunicatie.c **** CY_ISR(sendBleData)
  22:BleCommunicatie.c **** {
  23:BleCommunicatie.c ****     //Buffer
  24:BleCommunicatie.c **** 	char strBuffer[10];
  25:BleCommunicatie.c ****     
  26:BleCommunicatie.c ****     //Status led
  27:BleCommunicatie.c **** 	LED1_Write(~LED1_Read());
  28:BleCommunicatie.c **** 	
  29:BleCommunicatie.c ****     //Zet IRWaarden om naar hexadecimaal stelsel
  30:BleCommunicatie.c **** 	DecToHex(IRWaarden);
ARM GAS  C:\Users\Jona\AppData\Local\Temp\cclCjSMS.s 			page 2


  31:BleCommunicatie.c ****      //LCD_Position(0u, 10u);
  32:BleCommunicatie.c ****     //char testBuffer[] = {str[i+1], 'b',str[i+2] };
  33:BleCommunicatie.c ****                     
  34:BleCommunicatie.c ****     //Maak een string met hexaDecBuffer als parameter en sla die op in strBuffer
  35:BleCommunicatie.c **** 	sprintf(strBuffer, "I/%s/\r", hexaDecBuffer); 
  36:BleCommunicatie.c ****     
  37:BleCommunicatie.c ****     //LCD_PrintString(strBuffer);
  38:BleCommunicatie.c ****     //Verstuur de string naar de bluetooth module
  39:BleCommunicatie.c **** 	BleUart_PutString(strBuffer);
  40:BleCommunicatie.c **** 	
  41:BleCommunicatie.c ****     //Zet een testgetal om naar hex stelsel
  42:BleCommunicatie.c ****     
  43:BleCommunicatie.c **** 	DecToHex(ADC_IR_GetResult16(0));
  44:BleCommunicatie.c **** 	sprintf(strBuffer, "T/%s/\r",hexaDecBuffer); 
  45:BleCommunicatie.c **** 	BleUart_PutString(strBuffer);
  46:BleCommunicatie.c **** }
  47:BleCommunicatie.c **** 
  48:BleCommunicatie.c **** void ProcessCommandMsg(void)
  49:BleCommunicatie.c **** {
  50:BleCommunicatie.c ****     //Voorbeeld commando R/FF/
  51:BleCommunicatie.c ****     //RB.cmd is de eerste waarde dus in dit voorbeeld R
  52:BleCommunicatie.c ****     //RB.valstr = alles wat erna komt dus /FF/
  53:BleCommunicatie.c ****     
  54:BleCommunicatie.c **** 	if (RB.cmd == 'R')
  55:BleCommunicatie.c **** 	{  
  56:BleCommunicatie.c **** 		pwmMotorLinks = getCMDValue('/', RB.valstr);
  57:BleCommunicatie.c **** 	} 
  58:BleCommunicatie.c **** 	else if (RB.cmd == 'L')
  59:BleCommunicatie.c **** 	{
  60:BleCommunicatie.c **** 		pwmMotorRechts = getCMDValue('/', RB.valstr);
  61:BleCommunicatie.c **** 	}
  62:BleCommunicatie.c **** 	else if (RB.cmd == 'M')
  63:BleCommunicatie.c **** 	{
  64:BleCommunicatie.c **** 		uint8 enable = getCMDValue('/', RB.valstr);
  65:BleCommunicatie.c **** 		ENA_Write(enable);
  66:BleCommunicatie.c **** 		ENB_Write(enable);
  67:BleCommunicatie.c **** 	}
  68:BleCommunicatie.c **** }
  69:BleCommunicatie.c **** 
  70:BleCommunicatie.c **** //methode die een waarde uit een commando haalt
  71:BleCommunicatie.c **** //delimiter zijn de karakters waar de waarde tussen staat 
  72:BleCommunicatie.c **** //bvb delimiter is '/' en commando is R/FF/ dan is de return FF
  73:BleCommunicatie.c **** uint8 getCMDValue(char delimiter, char str[])
  74:BleCommunicatie.c **** {
  75:BleCommunicatie.c **** 	for (uint i = 0; i < strlen(str); i++)
  76:BleCommunicatie.c **** 		{
  77:BleCommunicatie.c **** 			if (str[i] == delimiter && str[i+3] == delimiter)
  78:BleCommunicatie.c **** 			{
  79:BleCommunicatie.c **** 				hexaDecBuffer[0] = str[i+1];
  80:BleCommunicatie.c **** 				hexaDecBuffer[1] = str[i+2];
  81:BleCommunicatie.c ****                    
  82:BleCommunicatie.c **** 			}    
  83:BleCommunicatie.c **** 		}
  84:BleCommunicatie.c **** 		
  85:BleCommunicatie.c **** 	return HexToDec(hexaDecBuffer);
  86:BleCommunicatie.c **** }
  87:BleCommunicatie.c **** 
ARM GAS  C:\Users\Jona\AppData\Local\Temp\cclCjSMS.s 			page 3


  88:BleCommunicatie.c **** //zet een getal om van dec naar hex
  89:BleCommunicatie.c **** void DecToHex(uint8 value)
  90:BleCommunicatie.c **** {
  28              		.loc 1 90 0
  29              		.cfi_startproc
  30              		@ args = 0, pretend = 0, frame = 0
  31              		@ frame_needed = 0, uses_anonymous_args = 0
  32              		@ link register save eliminated.
  33              	.LVL0:
  91:BleCommunicatie.c **** 	uint8 i = 1;
  92:BleCommunicatie.c ****     
  93:BleCommunicatie.c ****     //Beveiliging als value 0 is;
  94:BleCommunicatie.c **** 	if (value == 0)
  34              		.loc 1 94 0
  35 0000 0146     		mov	r1, r0
  36 0002 18B9     		cbnz	r0, .L2
  95:BleCommunicatie.c **** 	{
  96:BleCommunicatie.c **** 		hexaDecBuffer[0] = '0';
  37              		.loc 1 96 0
  38 0004 0C4B     		ldr	r3, .L7
  39 0006 3022     		movs	r2, #48
  40 0008 1A70     		strb	r2, [r3]
  97:BleCommunicatie.c **** 		hexaDecBuffer[1] ='0';
  41              		.loc 1 97 0
  42 000a 5A70     		strb	r2, [r3, #1]
  43              	.L2:
  90:BleCommunicatie.c **** 	uint8 i = 1;
  44              		.loc 1 90 0
  45 000c 0123     		movs	r3, #1
  46 000e 0FE0     		b	.L3
  47              	.LVL1:
  48              	.L6:
  49              	.LBB2:
  98:BleCommunicatie.c **** 	}
  99:BleCommunicatie.c ****     while (value != 0)
 100:BleCommunicatie.c ****     {
 101:BleCommunicatie.c ****         uint8 temp = value % 16;
  50              		.loc 1 101 0
  51 0010 01F00F02 		and	r2, r1, #15
  52              	.LVL2:
 102:BleCommunicatie.c ****         if (temp < 10)
  53              		.loc 1 102 0
  54 0014 092A     		cmp	r2, #9
  55 0016 05D8     		bhi	.L4
 103:BleCommunicatie.c ****         {
 104:BleCommunicatie.c ****             hexaDecBuffer[i] = temp + 48;
  56              		.loc 1 104 0
  57 0018 3032     		adds	r2, r2, #48
  58              	.LVL3:
  59 001a 0748     		ldr	r0, .L7
  60 001c C254     		strb	r2, [r0, r3]
 105:BleCommunicatie.c ****             i--;
  61              		.loc 1 105 0
  62 001e 013B     		subs	r3, r3, #1
  63              	.LVL4:
  64 0020 DBB2     		uxtb	r3, r3
  65              	.LVL5:
ARM GAS  C:\Users\Jona\AppData\Local\Temp\cclCjSMS.s 			page 4


  66 0022 04E0     		b	.L5
  67              	.LVL6:
  68              	.L4:
 106:BleCommunicatie.c ****         } 
 107:BleCommunicatie.c ****         else 
 108:BleCommunicatie.c **** 		{
 109:BleCommunicatie.c **** 			hexaDecBuffer[i] = temp + 55;
  69              		.loc 1 109 0
  70 0024 3732     		adds	r2, r2, #55
  71              	.LVL7:
  72 0026 0448     		ldr	r0, .L7
  73 0028 C254     		strb	r2, [r0, r3]
 110:BleCommunicatie.c **** 			i--;
  74              		.loc 1 110 0
  75 002a 013B     		subs	r3, r3, #1
  76              	.LVL8:
  77 002c DBB2     		uxtb	r3, r3
  78              	.LVL9:
  79              	.L5:
 111:BleCommunicatie.c **** 		}
 112:BleCommunicatie.c **** 		value = value / 16;
  80              		.loc 1 112 0
  81 002e 0909     		lsrs	r1, r1, #4
  82              	.LVL10:
  83              	.L3:
  84              	.LBE2:
  99:BleCommunicatie.c ****     {
  85              		.loc 1 99 0
  86 0030 0029     		cmp	r1, #0
  87 0032 EDD1     		bne	.L6
 113:BleCommunicatie.c **** 	}
 114:BleCommunicatie.c **** }
  88              		.loc 1 114 0
  89 0034 7047     		bx	lr
  90              	.L8:
  91 0036 00BF     		.align	2
  92              	.L7:
  93 0038 00000000 		.word	hexaDecBuffer
  94              		.cfi_endproc
  95              	.LFE67:
  96              		.size	DecToHex, .-DecToHex
  97              		.section	.text.sendBleData,"ax",%progbits
  98              		.align	2
  99              		.global	sendBleData
 100              		.thumb
 101              		.thumb_func
 102              		.type	sendBleData, %function
 103              	sendBleData:
 104              	.LFB64:
  22:BleCommunicatie.c ****     //Buffer
 105              		.loc 1 22 0
 106              		.cfi_startproc
 107              		@ args = 0, pretend = 0, frame = 16
 108              		@ frame_needed = 0, uses_anonymous_args = 0
 109 0000 10B5     		push	{r4, lr}
 110              		.cfi_def_cfa_offset 8
 111              		.cfi_offset 4, -8
ARM GAS  C:\Users\Jona\AppData\Local\Temp\cclCjSMS.s 			page 5


 112              		.cfi_offset 14, -4
 113 0002 84B0     		sub	sp, sp, #16
 114              		.cfi_def_cfa_offset 24
  27:BleCommunicatie.c **** 	
 115              		.loc 1 27 0
 116 0004 FFF7FEFF 		bl	LED1_Read
 117              	.LVL11:
 118 0008 C043     		mvns	r0, r0
 119 000a C0B2     		uxtb	r0, r0
 120 000c FFF7FEFF 		bl	LED1_Write
 121              	.LVL12:
  30:BleCommunicatie.c ****      //LCD_Position(0u, 10u);
 122              		.loc 1 30 0
 123 0010 0E4B     		ldr	r3, .L11
 124 0012 1878     		ldrb	r0, [r3]	@ zero_extendqisi2
 125 0014 FFF7FEFF 		bl	DecToHex
 126              	.LVL13:
  35:BleCommunicatie.c ****     
 127              		.loc 1 35 0
 128 0018 0D4C     		ldr	r4, .L11+4
 129 001a 2246     		mov	r2, r4
 130 001c 0D49     		ldr	r1, .L11+8
 131 001e 01A8     		add	r0, sp, #4
 132 0020 FFF7FEFF 		bl	sprintf
 133              	.LVL14:
  39:BleCommunicatie.c **** 	
 134              		.loc 1 39 0
 135 0024 01A8     		add	r0, sp, #4
 136 0026 FFF7FEFF 		bl	BleUart_PutString
 137              	.LVL15:
  43:BleCommunicatie.c **** 	sprintf(strBuffer, "T/%s/\r",hexaDecBuffer); 
 138              		.loc 1 43 0
 139 002a 0020     		movs	r0, #0
 140 002c FFF7FEFF 		bl	ADC_IR_GetResult16
 141              	.LVL16:
 142 0030 C0B2     		uxtb	r0, r0
 143 0032 FFF7FEFF 		bl	DecToHex
 144              	.LVL17:
  44:BleCommunicatie.c **** 	BleUart_PutString(strBuffer);
 145              		.loc 1 44 0
 146 0036 2246     		mov	r2, r4
 147 0038 0749     		ldr	r1, .L11+12
 148 003a 01A8     		add	r0, sp, #4
 149 003c FFF7FEFF 		bl	sprintf
 150              	.LVL18:
  45:BleCommunicatie.c **** }
 151              		.loc 1 45 0
 152 0040 01A8     		add	r0, sp, #4
 153 0042 FFF7FEFF 		bl	BleUart_PutString
 154              	.LVL19:
  46:BleCommunicatie.c **** 
 155              		.loc 1 46 0
 156 0046 04B0     		add	sp, sp, #16
 157              		.cfi_def_cfa_offset 8
 158              		@ sp needed
 159 0048 10BD     		pop	{r4, pc}
 160              	.L12:
ARM GAS  C:\Users\Jona\AppData\Local\Temp\cclCjSMS.s 			page 6


 161 004a 00BF     		.align	2
 162              	.L11:
 163 004c 00000000 		.word	IRWaarden
 164 0050 00000000 		.word	hexaDecBuffer
 165 0054 00000000 		.word	.LC0
 166 0058 08000000 		.word	.LC1
 167              		.cfi_endproc
 168              	.LFE64:
 169              		.size	sendBleData, .-sendBleData
 170              		.section	.text.HexToDec,"ax",%progbits
 171              		.align	2
 172              		.global	HexToDec
 173              		.thumb
 174              		.thumb_func
 175              		.type	HexToDec, %function
 176              	HexToDec:
 177              	.LFB68:
 115:BleCommunicatie.c **** 
 116:BleCommunicatie.c **** //Zet een getal om van HEX naar dec
 117:BleCommunicatie.c **** uint8 HexToDec(char hexVal[])
 118:BleCommunicatie.c **** {
 178              		.loc 1 118 0
 179              		.cfi_startproc
 180              		@ args = 0, pretend = 0, frame = 0
 181              		@ frame_needed = 0, uses_anonymous_args = 0
 182              	.LVL20:
 183 0000 38B5     		push	{r3, r4, r5, lr}
 184              		.cfi_def_cfa_offset 16
 185              		.cfi_offset 3, -16
 186              		.cfi_offset 4, -12
 187              		.cfi_offset 5, -8
 188              		.cfi_offset 14, -4
 189 0002 0446     		mov	r4, r0
 119:BleCommunicatie.c **** 	uint8 len = strlen(hexVal);
 190              		.loc 1 119 0
 191 0004 FFF7FEFF 		bl	strlen
 192              	.LVL21:
 193              	.LBB3:
 120:BleCommunicatie.c **** 	uint base = 1;
 121:BleCommunicatie.c **** 	uint dec_val =0;
 122:BleCommunicatie.c **** 	for (int i=len-1; i>=0; i--)
 194              		.loc 1 122 0
 195 0008 C0B2     		uxtb	r0, r0
 196 000a 421E     		subs	r2, r0, #1
 197              	.LVL22:
 198              	.LBE3:
 121:BleCommunicatie.c **** 	for (int i=len-1; i>=0; i--)
 199              		.loc 1 121 0
 200 000c 0020     		movs	r0, #0
 201              	.LVL23:
 120:BleCommunicatie.c **** 	uint base = 1;
 202              		.loc 1 120 0
 203 000e 0125     		movs	r5, #1
 204              	.LBB4:
 205              		.loc 1 122 0
 206 0010 14E0     		b	.L14
 207              	.LVL24:
ARM GAS  C:\Users\Jona\AppData\Local\Temp\cclCjSMS.s 			page 7


 208              	.L17:
 123:BleCommunicatie.c **** 	{
 124:BleCommunicatie.c **** 		if (hexVal[i] >= '0' && hexVal[i] <='9')
 209              		.loc 1 124 0
 210 0012 A35C     		ldrb	r3, [r4, r2]	@ zero_extendqisi2
 211 0014 A3F13001 		sub	r1, r3, #48
 212 0018 C9B2     		uxtb	r1, r1
 213 001a 0929     		cmp	r1, #9
 214 001c 04D8     		bhi	.L15
 125:BleCommunicatie.c **** 		{
 126:BleCommunicatie.c **** 		 dec_val += (hexVal[i] - 48) * base;
 215              		.loc 1 126 0
 216 001e 303B     		subs	r3, r3, #48
 217 0020 05FB0300 		mla	r0, r5, r3, r0
 218              	.LVL25:
 127:BleCommunicatie.c **** 		 base = base*16;   
 219              		.loc 1 127 0
 220 0024 2D01     		lsls	r5, r5, #4
 221              	.LVL26:
 222 0026 08E0     		b	.L16
 223              	.L15:
 128:BleCommunicatie.c **** 		} else if (hexVal[i]>='A' && hexVal[i]<='F')
 224              		.loc 1 128 0
 225 0028 A3F14101 		sub	r1, r3, #65
 226 002c C9B2     		uxtb	r1, r1
 227 002e 0529     		cmp	r1, #5
 228 0030 03D8     		bhi	.L16
 129:BleCommunicatie.c **** 		{
 130:BleCommunicatie.c **** 			dec_val += (hexVal[i] - 55)*base;
 229              		.loc 1 130 0
 230 0032 373B     		subs	r3, r3, #55
 231 0034 05FB0300 		mla	r0, r5, r3, r0
 232              	.LVL27:
 131:BleCommunicatie.c **** 			base = base*16;
 233              		.loc 1 131 0
 234 0038 2D01     		lsls	r5, r5, #4
 235              	.LVL28:
 236              	.L16:
 122:BleCommunicatie.c **** 	{
 237              		.loc 1 122 0 discriminator 2
 238 003a 013A     		subs	r2, r2, #1
 239              	.LVL29:
 240              	.L14:
 122:BleCommunicatie.c **** 	{
 241              		.loc 1 122 0 is_stmt 0 discriminator 1
 242 003c 002A     		cmp	r2, #0
 243 003e E8DA     		bge	.L17
 244              	.LBE4:
 132:BleCommunicatie.c **** 		}
 133:BleCommunicatie.c **** 	}
 134:BleCommunicatie.c **** 	return dec_val;
 135:BleCommunicatie.c **** }
 245              		.loc 1 135 0 is_stmt 1
 246 0040 C0B2     		uxtb	r0, r0
 247              	.LVL30:
 248 0042 38BD     		pop	{r3, r4, r5, pc}
 249              		.cfi_endproc
ARM GAS  C:\Users\Jona\AppData\Local\Temp\cclCjSMS.s 			page 8


 250              	.LFE68:
 251              		.size	HexToDec, .-HexToDec
 252              		.section	.text.getCMDValue,"ax",%progbits
 253              		.align	2
 254              		.global	getCMDValue
 255              		.thumb
 256              		.thumb_func
 257              		.type	getCMDValue, %function
 258              	getCMDValue:
 259              	.LFB66:
  74:BleCommunicatie.c **** 	for (uint i = 0; i < strlen(str); i++)
 260              		.loc 1 74 0
 261              		.cfi_startproc
 262              		@ args = 0, pretend = 0, frame = 0
 263              		@ frame_needed = 0, uses_anonymous_args = 0
 264              	.LVL31:
 265 0000 70B5     		push	{r4, r5, r6, lr}
 266              		.cfi_def_cfa_offset 16
 267              		.cfi_offset 4, -16
 268              		.cfi_offset 5, -12
 269              		.cfi_offset 6, -8
 270              		.cfi_offset 14, -4
 271 0002 0646     		mov	r6, r0
 272 0004 0D46     		mov	r5, r1
 273              	.LVL32:
 274              	.LBB5:
  75:BleCommunicatie.c **** 		{
 275              		.loc 1 75 0
 276 0006 0024     		movs	r4, #0
 277 0008 0DE0     		b	.L20
 278              	.LVL33:
 279              	.L22:
  77:BleCommunicatie.c **** 			{
 280              		.loc 1 77 0
 281 000a 2B5D     		ldrb	r3, [r5, r4]	@ zero_extendqisi2
 282 000c B342     		cmp	r3, r6
 283 000e 09D1     		bne	.L21
  77:BleCommunicatie.c **** 			{
 284              		.loc 1 77 0 is_stmt 0 discriminator 1
 285 0010 E31C     		adds	r3, r4, #3
 286 0012 EB5C     		ldrb	r3, [r5, r3]	@ zero_extendqisi2
 287 0014 9E42     		cmp	r6, r3
 288 0016 05D1     		bne	.L21
  79:BleCommunicatie.c **** 				hexaDecBuffer[1] = str[i+2];
 289              		.loc 1 79 0 is_stmt 1
 290 0018 2A19     		adds	r2, r5, r4
 291 001a 5178     		ldrb	r1, [r2, #1]	@ zero_extendqisi2
 292 001c 064B     		ldr	r3, .L24
 293 001e 1970     		strb	r1, [r3]
  80:BleCommunicatie.c ****                    
 294              		.loc 1 80 0
 295 0020 9278     		ldrb	r2, [r2, #2]	@ zero_extendqisi2
 296 0022 5A70     		strb	r2, [r3, #1]
 297              	.L21:
  75:BleCommunicatie.c **** 		{
 298              		.loc 1 75 0 discriminator 2
 299 0024 0134     		adds	r4, r4, #1
ARM GAS  C:\Users\Jona\AppData\Local\Temp\cclCjSMS.s 			page 9


 300              	.LVL34:
 301              	.L20:
  75:BleCommunicatie.c **** 		{
 302              		.loc 1 75 0 is_stmt 0 discriminator 1
 303 0026 2846     		mov	r0, r5
 304 0028 FFF7FEFF 		bl	strlen
 305              	.LVL35:
 306 002c 8442     		cmp	r4, r0
 307 002e ECD3     		bcc	.L22
 308              	.LBE5:
  85:BleCommunicatie.c **** }
 309              		.loc 1 85 0 is_stmt 1
 310 0030 0148     		ldr	r0, .L24
 311 0032 FFF7FEFF 		bl	HexToDec
 312              	.LVL36:
  86:BleCommunicatie.c **** 
 313              		.loc 1 86 0
 314 0036 70BD     		pop	{r4, r5, r6, pc}
 315              	.LVL37:
 316              	.L25:
 317              		.align	2
 318              	.L24:
 319 0038 00000000 		.word	hexaDecBuffer
 320              		.cfi_endproc
 321              	.LFE66:
 322              		.size	getCMDValue, .-getCMDValue
 323              		.section	.text.ProcessCommandMsg,"ax",%progbits
 324              		.align	2
 325              		.global	ProcessCommandMsg
 326              		.thumb
 327              		.thumb_func
 328              		.type	ProcessCommandMsg, %function
 329              	ProcessCommandMsg:
 330              	.LFB65:
  49:BleCommunicatie.c ****     //Voorbeeld commando R/FF/
 331              		.loc 1 49 0
 332              		.cfi_startproc
 333              		@ args = 0, pretend = 0, frame = 0
 334              		@ frame_needed = 0, uses_anonymous_args = 0
 335 0000 10B5     		push	{r4, lr}
 336              		.cfi_def_cfa_offset 8
 337              		.cfi_offset 4, -8
 338              		.cfi_offset 14, -4
  54:BleCommunicatie.c **** 	{  
 339              		.loc 1 54 0
 340 0002 104B     		ldr	r3, .L31
 341 0004 1B78     		ldrb	r3, [r3]	@ zero_extendqisi2
 342 0006 522B     		cmp	r3, #82
 343 0008 06D1     		bne	.L27
  56:BleCommunicatie.c **** 	} 
 344              		.loc 1 56 0
 345 000a 0F49     		ldr	r1, .L31+4
 346 000c 2F20     		movs	r0, #47
 347 000e FFF7FEFF 		bl	getCMDValue
 348              	.LVL38:
 349 0012 0E4B     		ldr	r3, .L31+8
 350 0014 1870     		strb	r0, [r3]
ARM GAS  C:\Users\Jona\AppData\Local\Temp\cclCjSMS.s 			page 10


 351 0016 10BD     		pop	{r4, pc}
 352              	.L27:
  58:BleCommunicatie.c **** 	{
 353              		.loc 1 58 0
 354 0018 4C2B     		cmp	r3, #76
 355 001a 06D1     		bne	.L29
  60:BleCommunicatie.c **** 	}
 356              		.loc 1 60 0
 357 001c 0A49     		ldr	r1, .L31+4
 358 001e 2F20     		movs	r0, #47
 359 0020 FFF7FEFF 		bl	getCMDValue
 360              	.LVL39:
 361 0024 0A4B     		ldr	r3, .L31+12
 362 0026 1870     		strb	r0, [r3]
 363 0028 10BD     		pop	{r4, pc}
 364              	.L29:
  62:BleCommunicatie.c **** 	{
 365              		.loc 1 62 0
 366 002a 4D2B     		cmp	r3, #77
 367 002c 09D1     		bne	.L26
 368              	.LBB6:
  64:BleCommunicatie.c **** 		ENA_Write(enable);
 369              		.loc 1 64 0
 370 002e 0649     		ldr	r1, .L31+4
 371 0030 2F20     		movs	r0, #47
 372 0032 FFF7FEFF 		bl	getCMDValue
 373              	.LVL40:
 374 0036 0446     		mov	r4, r0
 375              	.LVL41:
  65:BleCommunicatie.c **** 		ENB_Write(enable);
 376              		.loc 1 65 0
 377 0038 FFF7FEFF 		bl	ENA_Write
 378              	.LVL42:
  66:BleCommunicatie.c **** 	}
 379              		.loc 1 66 0
 380 003c 2046     		mov	r0, r4
 381 003e FFF7FEFF 		bl	ENB_Write
 382              	.LVL43:
 383              	.L26:
 384 0042 10BD     		pop	{r4, pc}
 385              	.L32:
 386              		.align	2
 387              	.L31:
 388 0044 00000000 		.word	RB
 389 0048 01000000 		.word	RB+1
 390 004c 00000000 		.word	pwmMotorLinks
 391 0050 00000000 		.word	pwmMotorRechts
 392              	.LBE6:
 393              		.cfi_endproc
 394              	.LFE65:
 395              		.size	ProcessCommandMsg, .-ProcessCommandMsg
 396              		.comm	RB,20,4
 397              		.comm	boolSelect,1,1
 398              		.comm	avgUS3,10,4
 399              		.comm	avgUS2,10,4
 400              		.comm	avgUS1,10,4
 401              		.comm	selectUS,1,1
ARM GAS  C:\Users\Jona\AppData\Local\Temp\cclCjSMS.s 			page 11


 402              		.comm	mediaan,2,2
 403              		.comm	IRDrempel,1,1
 404              		.comm	IRWaarden,1,1
 405              		.comm	pwmMotorRechts,1,1
 406              		.comm	pwmMotorLinks,1,1
 407              		.comm	strMsg1,64,4
 408              		.comm	hexaDecBuffer,2,4
 409              		.section	.rodata.str1.4,"aMS",%progbits,1
 410              		.align	2
 411              	.LC0:
 412 0000 492F2573 		.ascii	"I/%s/\015\000"
 412      2F0D00
 413 0007 00       		.space	1
 414              	.LC1:
 415 0008 542F2573 		.ascii	"T/%s/\015\000"
 415      2F0D00
 416              		.text
 417              	.Letext0:
 418              		.file 2 "c:\\program files (x86)\\cypress\\psoc creator\\4.1\\psoc creator\\import\\gnu\\arm\\5.4.
 419              		.file 3 "c:\\program files (x86)\\cypress\\psoc creator\\4.1\\psoc creator\\import\\gnu\\arm\\5.4.
 420              		.file 4 "Generated_Source\\PSoC5/cytypes.h"
 421              		.file 5 "c:\\program files (x86)\\cypress\\psoc creator\\4.1\\psoc creator\\import\\gnu\\arm\\5.4.
 422              		.file 6 "projectMain.h"
 423              		.file 7 "Generated_Source\\PSoC5/core_cm3.h"
 424              		.file 8 "Generated_Source\\PSoC5/LED1.h"
 425              		.file 9 "c:\\program files (x86)\\cypress\\psoc creator\\4.1\\psoc creator\\import\\gnu\\arm\\5.4.
 426              		.file 10 "Generated_Source\\PSoC5/BleUart.h"
 427              		.file 11 "Generated_Source\\PSoC5/ADC_IR.h"
 428              		.file 12 "c:\\program files (x86)\\cypress\\psoc creator\\4.1\\psoc creator\\import\\gnu\\arm\\5.4
 429              		.file 13 "Generated_Source\\PSoC5/ENA.h"
 430              		.file 14 "Generated_Source\\PSoC5/ENB.h"
 431              		.file 15 "./myUART.h"