ARM GAS  C:\Users\BASILE~1\AppData\Local\Temp\ccjR6Z6O.s 			page 1


   1              		.syntax unified
   2              		.cpu cortex-m3
   3              		.fpu softvfp
   4              		.eabi_attribute 20, 1
   5              		.eabi_attribute 21, 1
   6              		.eabi_attribute 23, 3
   7              		.eabi_attribute 24, 1
   8              		.eabi_attribute 25, 1
   9              		.eabi_attribute 26, 1
  10              		.eabi_attribute 30, 1
  11              		.eabi_attribute 34, 1
  12              		.eabi_attribute 18, 4
  13              		.thumb
  14              		.syntax unified
  15              		.file	"main.c"
  16              		.text
  17              	.Ltext0:
  18              		.cfi_sections	.debug_frame
  19              		.section	.text.initFirmwire,"ax",%progbits
  20              		.align	2
  21              		.global	initFirmwire
  22              		.thumb
  23              		.thumb_func
  24              		.type	initFirmwire, %function
  25              	initFirmwire:
  26              	.LFB68:
  27              		.file 1 "main.c"
   1:main.c        **** /* ========================================
   2:main.c        ****  *
   3:main.c        ****  * Copyright YOUR COMPANY, THE YEAR
   4:main.c        ****  * All Rights Reserved
   5:main.c        ****  * UNPUBLISHED, LICENSED SOFTWARE.
   6:main.c        ****  *
   7:main.c        ****  * CONFIDENTIAL AND PROPRIETARY INFORMATION
   8:main.c        ****  * WHICH IS THE PROPERTY OF your company.
   9:main.c        ****  *
  10:main.c        ****  * ========================================
  11:main.c        **** */
  12:main.c        **** 
  13:main.c        **** #include "projectMain.h"
  14:main.c        **** #include "project.h"
  15:main.c        **** #include <string.h>
  16:main.c        **** //#include <stdlib.h> //atoi
  17:main.c        **** #include <stdio.h> 
  18:main.c        **** #include <myUART.h>
  19:main.c        **** 
  20:main.c        **** //INFRAROOD GLOBALS
  21:main.c        **** uint8 IRWaarden;
  22:main.c        **** uint8 IRDrempel = 100;
  23:main.c        **** 
  24:main.c        **** //US GLOBALS
  25:main.c        **** uint8 selectUS = 0;
  26:main.c        **** uint16 mediaan;
  27:main.c        **** 
  28:main.c        **** uint16 avgUS1[5];
  29:main.c        **** uint16 avgUS2[5];
  30:main.c        **** uint16 avgUS3[5];
ARM GAS  C:\Users\BASILE~1\AppData\Local\Temp\ccjR6Z6O.s 			page 2


  31:main.c        **** 
  32:main.c        **** //MOTOR GLOBALS
  33:main.c        **** uint8 pwmMotor1 = 0;
  34:main.c        **** uint8 pwmMotor2 = 0;
  35:main.c        **** 
  36:main.c        **** 
  37:main.c        **** char hexaDecBuffer[2];
  38:main.c        **** char strMsg1[64];
  39:main.c        **** 
  40:main.c        **** //Interupt "end of conversion" van SAR_ADC 
  41:main.c        **** CY_ISR(IRSensoren)
  42:main.c        **** {
  43:main.c        ****     uint8 tmpWaarden = IRWaarden;
  44:main.c        ****     IRWaarden = 0;
  45:main.c        ****    for(int i = 0; i < 8; i++)
  46:main.c        ****    {
  47:main.c        ****     if (ADC_IR_GetResult16(i) > IRDrempel)
  48:main.c        ****     {
  49:main.c        ****        uint8 tmpWaarde = exponent(2,i); 
  50:main.c        ****        IRWaarden = IRWaarden | tmpWaarde;
  51:main.c        ****     }
  52:main.c        ****    }
  53:main.c        **** }
  54:main.c        ****   
  55:main.c        **** CY_ISR(SwitchMotorEN)
  56:main.c        **** {
  57:main.c        ****    //ENA_Write(~ENA_Read());
  58:main.c        ****     char strBuffer[10];
  59:main.c        ****    //ENB_Write(ENA_Read());
  60:main.c        ****      DecToHex(IRWaarden);
  61:main.c        ****     sprintf(strBuffer, "I/%s/\r", hexaDecBuffer); 
  62:main.c        ****     BleUart_PutString(strBuffer);
  63:main.c        ****     
  64:main.c        ****     DecToHex(ADC_IR_GetResult16(0));
  65:main.c        ****     sprintf(strBuffer,"T/%s/\r",hexaDecBuffer); 
  66:main.c        ****     BleUart_PutString(strBuffer);
  67:main.c        ****     
  68:main.c        **** }
  69:main.c        **** 
  70:main.c        **** CY_ISR(sendBleData)
  71:main.c        **** {
  72:main.c        ****     char strBuffer[10];
  73:main.c        ****     LED1_Write(~LED1_Read());
  74:main.c        ****     
  75:main.c        ****     DecToHex(IRWaarden);
  76:main.c        ****     sprintf(strBuffer, "I/%s/\r", hexaDecBuffer); 
  77:main.c        ****     BleUart_PutString(strBuffer);
  78:main.c        ****     
  79:main.c        ****     DecToHex(ADC_IR_GetResult16(0));
  80:main.c        ****     sprintf(strBuffer, "T/%s/\r",hexaDecBuffer); 
  81:main.c        ****     BleUart_PutString(strBuffer);
  82:main.c        **** }
  83:main.c        **** 
  84:main.c        **** int main(void)
  85:main.c        **** {
  86:main.c        ****     CyGlobalIntEnable; /* Enable global interrupts. */
  87:main.c        ****     
ARM GAS  C:\Users\BASILE~1\AppData\Local\Temp\ccjR6Z6O.s 			page 3


  88:main.c        ****     initFirmwire();
  89:main.c        ****     
  90:main.c        ****     //Interrupts
  91:main.c        ****     readIRSensors_StartEx(IRSensoren);
  92:main.c        ****     EnMotorISR_StartEx(SwitchMotorEN);
  93:main.c        ****     BleRxISR_StartEx(MyRxInt);
  94:main.c        ****     SendBleDataISR_StartEx(sendBleData);
  95:main.c        ****     
  96:main.c        ****     LCD_Position(0u, 0u);
  97:main.c        ****     LCD_PrintString("Druk om te starten");
  98:main.c        ****     
  99:main.c        ****     MotorControl_WriteCompare1(pwmMotor1);
 100:main.c        ****     MotorControl_WriteCompare2(pwmMotor2);
 101:main.c        ****     ENA_Write(0);
 102:main.c        ****     ENB_Write(0);
 103:main.c        ****     
 104:main.c        ****     
 105:main.c        **** 
 106:main.c        ****     while(SW1_Read() == 1) //Wait until press on SW1
 107:main.c        ****     {
 108:main.c        ****     }
 109:main.c        ****     
 110:main.c        ****     //telProcedure();
 111:main.c        ****     LCD_ClearDisplay();
 112:main.c        ****     for(;;)
 113:main.c        ****     { 
 114:main.c        ****         if (IsCharReady())
 115:main.c        ****         {
 116:main.c        ****             if(GetRxStr())
 117:main.c        ****             {
 118:main.c        ****                 ProcessCommandMsg();
 119:main.c        ****             }
 120:main.c        ****         }
 121:main.c        ****         //US deel
 122:main.c        ****         /////////////////////////////////////////////////////
 123:main.c        ****         //Teller die door de mux loopt
 124:main.c        ****         selectUS = telTot(selectUS, 0, 2); //PAS DIT AAN INDIEN NIET ALE US SENSOREN ZIJN AANGESLOT
 125:main.c        ****         //selectUS_Write(selectUS);
 126:main.c        ****         
 127:main.c        ****         //vraag afstand aan 1 van de 3 us sensoren
 128:main.c        ****        // uint16 counterValue = readUSValue();
 129:main.c        ****         
 130:main.c        ****         //schuif uitkomst timer in juiste array
 131:main.c        ****         //if (selectUS == 0) schuifRegister(avgUS1, counterValue);
 132:main.c        ****         //else if (selectUS == 1) schuifRegister(avgUS2, counterValue);
 133:main.c        ****         //else if (selectUS == 2) schuifRegister(avgUS3, counterValue);
 134:main.c        ****         
 135:main.c        ****         //berekenen van de mediaan
 136:main.c        ****         
 137:main.c        ****          
 138:main.c        ****         //LCD deel   
 139:main.c        ****         /////////////////////////////////////////////////////
 140:main.c        **** //        BleUart_PutString("\r\n");
 141:main.c        **** //        BleUart_PutChar('S');
 142:main.c        **** //        BleUart_WriteTxData(ADC_IR_GetResult16(0));
 143:main.c        **** //        BleUart_PutString("\r\n");
 144:main.c        **** //        BleUart_PutChar('I');
ARM GAS  C:\Users\BASILE~1\AppData\Local\Temp\ccjR6Z6O.s 			page 4


 145:main.c        **** //        BleUart_WriteTxData(IRWaarden);
 146:main.c        **** //        BleUart_PutString("\r\n");
 147:main.c        **** //        LED1_Write(~LED1_Read());
 148:main.c        ****         
 149:main.c        ****         
 150:main.c        ****        // LCD_ClearDisplay();
 151:main.c        ****        // print text en een test variable op de lcd
 152:main.c        ****         printTextopLCD(pwmMotor1, pwmMotor2);
 153:main.c        ****         //print de binaire waarde van de infrarood sensoren op de lcd
 154:main.c        ****         printBINopLCD(IRWaarden, 1);
 155:main.c        ****         
 156:main.c        ****         //motordeel
 157:main.c        ****         /////////////////////////////////////////////////////
 158:main.c        ****         MotorControl_WriteCompare1(pwmMotor1);
 159:main.c        ****         MotorControl_WriteCompare2(pwmMotor2);
 160:main.c        ****     }
 161:main.c        **** }
 162:main.c        **** 
 163:main.c        **** void initFirmwire()
 164:main.c        **** {
  28              		.loc 1 164 0
  29              		.cfi_startproc
  30              		@ args = 0, pretend = 0, frame = 0
  31              		@ frame_needed = 0, uses_anonymous_args = 0
  32 0000 08B5     		push	{r3, lr}
  33              		.cfi_def_cfa_offset 8
  34              		.cfi_offset 3, -8
  35              		.cfi_offset 14, -4
 165:main.c        ****     ADC_IR_Start();
  36              		.loc 1 165 0
  37 0002 FFF7FEFF 		bl	ADC_IR_Start
  38              	.LVL0:
 166:main.c        ****     ADC_IR_StartConvert();
  39              		.loc 1 166 0
  40 0006 FFF7FEFF 		bl	ADC_IR_StartConvert
  41              	.LVL1:
 167:main.c        ****     
 168:main.c        ****     LCD_Start(); 
  42              		.loc 1 168 0
  43 000a FFF7FEFF 		bl	LCD_Start
  44              	.LVL2:
 169:main.c        ****     
 170:main.c        ****     MotorControl_Start();
  45              		.loc 1 170 0
  46 000e FFF7FEFF 		bl	MotorControl_Start
  47              	.LVL3:
 171:main.c        ****     
 172:main.c        ****     TimerUS_Start();
  48              		.loc 1 172 0
  49 0012 FFF7FEFF 		bl	TimerUS_Start
  50              	.LVL4:
 173:main.c        ****    
 174:main.c        ****     BleVDAC_Start();
  51              		.loc 1 174 0
  52 0016 FFF7FEFF 		bl	BleVDAC_Start
  53              	.LVL5:
 175:main.c        ****     BleBuffer_Start();
ARM GAS  C:\Users\BASILE~1\AppData\Local\Temp\ccjR6Z6O.s 			page 5


  54              		.loc 1 175 0
  55 001a FFF7FEFF 		bl	BleBuffer_Start
  56              	.LVL6:
 176:main.c        ****     BleUart_Start();
  57              		.loc 1 176 0
  58 001e FFF7FEFF 		bl	BleUart_Start
  59              	.LVL7:
 177:main.c        ****     sendBleDataTimer_Start();
  60              		.loc 1 177 0
  61 0022 FFF7FEFF 		bl	sendBleDataTimer_Start
  62              	.LVL8:
  63 0026 08BD     		pop	{r3, pc}
  64              		.cfi_endproc
  65              	.LFE68:
  66              		.size	initFirmwire, .-initFirmwire
  67              		.section	.text.readUSValue,"ax",%progbits
  68              		.align	2
  69              		.global	readUSValue
  70              		.thumb
  71              		.thumb_func
  72              		.type	readUSValue, %function
  73              	readUSValue:
  74              	.LFB69:
 178:main.c        ****    
 179:main.c        **** }    
 180:main.c        ****     
 181:main.c        **** uint16 readUSValue(void)
 182:main.c        **** {
  75              		.loc 1 182 0
  76              		.cfi_startproc
  77              		@ args = 0, pretend = 0, frame = 0
  78              		@ frame_needed = 0, uses_anonymous_args = 0
  79 0000 08B5     		push	{r3, lr}
  80              		.cfi_def_cfa_offset 8
  81              		.cfi_offset 3, -8
  82              		.cfi_offset 14, -4
 183:main.c        ****     while(statusEcho_Read() == 0)
  83              		.loc 1 183 0
  84 0002 08E0     		b	.L4
  85              	.L5:
 184:main.c        ****         {
 185:main.c        ****             TriggerReg_Write(1);
  86              		.loc 1 185 0
  87 0004 0120     		movs	r0, #1
  88 0006 FFF7FEFF 		bl	TriggerReg_Write
  89              	.LVL9:
 186:main.c        ****             CyDelayUs(10);
  90              		.loc 1 186 0
  91 000a 0A20     		movs	r0, #10
  92 000c FFF7FEFF 		bl	CyDelayUs
  93              	.LVL10:
 187:main.c        ****             TriggerReg_Write(0);
  94              		.loc 1 187 0
  95 0010 0020     		movs	r0, #0
  96 0012 FFF7FEFF 		bl	TriggerReg_Write
  97              	.LVL11:
  98              	.L4:
ARM GAS  C:\Users\BASILE~1\AppData\Local\Temp\ccjR6Z6O.s 			page 6


 183:main.c        ****         {
  99              		.loc 1 183 0
 100 0016 FFF7FEFF 		bl	statusEcho_Read
 101              	.LVL12:
 102 001a 0028     		cmp	r0, #0
 103 001c F2D0     		beq	.L5
 104              	.L6:
 188:main.c        ****         }
 189:main.c        ****     while(statusEcho_Read() == 1){}
 105              		.loc 1 189 0 discriminator 1
 106 001e FFF7FEFF 		bl	statusEcho_Read
 107              	.LVL13:
 108 0022 0128     		cmp	r0, #1
 109 0024 FBD0     		beq	.L6
 190:main.c        ****     return TimerUS_ReadCounter();
 110              		.loc 1 190 0
 111 0026 FFF7FEFF 		bl	TimerUS_ReadCounter
 112              	.LVL14:
 191:main.c        **** }
 113              		.loc 1 191 0
 114 002a 08BD     		pop	{r3, pc}
 115              		.cfi_endproc
 116              	.LFE69:
 117              		.size	readUSValue, .-readUSValue
 118              		.section	.text.schuifRegister,"ax",%progbits
 119              		.align	2
 120              		.global	schuifRegister
 121              		.thumb
 122              		.thumb_func
 123              		.type	schuifRegister, %function
 124              	schuifRegister:
 125              	.LFB70:
 192:main.c        **** 
 193:main.c        **** void schuifRegister(uint16 array[], uint16 newValue)
 194:main.c        **** {
 126              		.loc 1 194 0
 127              		.cfi_startproc
 128              		@ args = 0, pretend = 0, frame = 0
 129              		@ frame_needed = 0, uses_anonymous_args = 0
 130              		@ link register save eliminated.
 131              	.LVL15:
 132 0000 10B4     		push	{r4}
 133              		.cfi_def_cfa_offset 4
 134              		.cfi_offset 4, -4
 135              	.LVL16:
 136              	.LBB2:
 195:main.c        ****     for(int i = 3; i >= 0; i--)
 137              		.loc 1 195 0
 138 0002 0323     		movs	r3, #3
 139 0004 06E0     		b	.L9
 140              	.LVL17:
 141              	.L10:
 142              	.LBB3:
 196:main.c        ****     {
 197:main.c        ****         uint16 tmpvalue = avgUS1[i];
 143              		.loc 1 197 0 discriminator 3
 144 0006 064A     		ldr	r2, .L12
ARM GAS  C:\Users\BASILE~1\AppData\Local\Temp\ccjR6Z6O.s 			page 7


 145 0008 32F81340 		ldrh	r4, [r2, r3, lsl #1]
 146              	.LVL18:
 198:main.c        ****         array[i + 1] = tmpvalue;
 147              		.loc 1 198 0 discriminator 3
 148 000c 5A1C     		adds	r2, r3, #1
 149 000e 20F81240 		strh	r4, [r0, r2, lsl #1]	@ movhi
 150              	.LBE3:
 195:main.c        ****     for(int i = 3; i >= 0; i--)
 151              		.loc 1 195 0 discriminator 3
 152 0012 013B     		subs	r3, r3, #1
 153              	.LVL19:
 154              	.L9:
 195:main.c        ****     for(int i = 3; i >= 0; i--)
 155              		.loc 1 195 0 is_stmt 0 discriminator 1
 156 0014 002B     		cmp	r3, #0
 157 0016 F6DA     		bge	.L10
 158              	.LBE2:
 199:main.c        ****     }
 200:main.c        ****     array[0] = newValue;
 159              		.loc 1 200 0 is_stmt 1
 160 0018 0180     		strh	r1, [r0]	@ movhi
 201:main.c        **** }
 161              		.loc 1 201 0
 162 001a 10BC     		pop	{r4}
 163              		.cfi_restore 4
 164              		.cfi_def_cfa_offset 0
 165 001c 7047     		bx	lr
 166              	.L13:
 167 001e 00BF     		.align	2
 168              	.L12:
 169 0020 00000000 		.word	avgUS1
 170              		.cfi_endproc
 171              	.LFE70:
 172              		.size	schuifRegister, .-schuifRegister
 173              		.section	.text.berekenMediaan,"ax",%progbits
 174              		.align	2
 175              		.global	berekenMediaan
 176              		.thumb
 177              		.thumb_func
 178              		.type	berekenMediaan, %function
 179              	berekenMediaan:
 180              	.LFB71:
 202:main.c        **** 
 203:main.c        **** void berekenMediaan(uint16 array[]) 
 204:main.c        **** { 
 181              		.loc 1 204 0
 182              		.cfi_startproc
 183              		@ args = 0, pretend = 0, frame = 16
 184              		@ frame_needed = 0, uses_anonymous_args = 0
 185              		@ link register save eliminated.
 186              	.LVL20:
 187 0000 10B4     		push	{r4}
 188              		.cfi_def_cfa_offset 4
 189              		.cfi_offset 4, -4
 190 0002 85B0     		sub	sp, sp, #20
 191              		.cfi_def_cfa_offset 24
 192 0004 0446     		mov	r4, r0
ARM GAS  C:\Users\BASILE~1\AppData\Local\Temp\ccjR6Z6O.s 			page 8


 205:main.c        ****     //uint16 tmp = 0;
 206:main.c        ****     uint16 tmpArray[] = {UINT16_MAX,UINT16_MAX,UINT16_MAX,UINT16_MAX,UINT16_MAX};
 193              		.loc 1 206 0
 194 0006 134A     		ldr	r2, .L21
 195 0008 01AB     		add	r3, sp, #4
 196 000a 1068     		ldr	r0, [r2]	@ unaligned
 197              	.LVL21:
 198 000c 5168     		ldr	r1, [r2, #4]	@ unaligned
 199 000e 03C3     		stmia	r3!, {r0, r1}
 200 0010 1289     		ldrh	r2, [r2, #8]	@ unaligned
 201 0012 1A80     		strh	r2, [r3]	@ unaligned
 202              	.LVL22:
 203              	.LBB4:
 207:main.c        ****     for(int i = 0; i < 5; i++)
 204              		.loc 1 207 0
 205 0014 0021     		movs	r1, #0
 206 0016 13E0     		b	.L15
 207              	.LVL23:
 208              	.L17:
 209              	.LBB5:
 208:main.c        ****     {
 209:main.c        ****         for(int j = 0; j < 5; j++) 
 210:main.c        ****         {
 211:main.c        ****             if (array[j] < tmpArray[i]) tmpArray[i] = array[j];
 210              		.loc 1 211 0
 211 0018 34F81320 		ldrh	r2, [r4, r3, lsl #1]
 212 001c 04A8     		add	r0, sp, #16
 213 001e 00EB4100 		add	r0, r0, r1, lsl #1
 214 0022 30F80C0C 		ldrh	r0, [r0, #-12]
 215 0026 8242     		cmp	r2, r0
 216 0028 04D2     		bcs	.L16
 217              		.loc 1 211 0 is_stmt 0 discriminator 1
 218 002a 04A8     		add	r0, sp, #16
 219 002c 00EB4100 		add	r0, r0, r1, lsl #1
 220 0030 20F80C2C 		strh	r2, [r0, #-12]	@ movhi
 221              	.L16:
 209:main.c        ****         {
 222              		.loc 1 209 0 is_stmt 1 discriminator 2
 223 0034 0133     		adds	r3, r3, #1
 224              	.LVL24:
 225 0036 00E0     		b	.L18
 226              	.LVL25:
 227              	.L19:
 228              	.LBE5:
 229 0038 0023     		movs	r3, #0
 230              	.L18:
 231              	.LVL26:
 232              	.LBB6:
 209:main.c        ****         {
 233              		.loc 1 209 0 is_stmt 0 discriminator 1
 234 003a 042B     		cmp	r3, #4
 235 003c ECDD     		ble	.L17
 236              	.LBE6:
 207:main.c        ****     for(int i = 0; i < 5; i++)
 237              		.loc 1 207 0 is_stmt 1 discriminator 2
 238 003e 0131     		adds	r1, r1, #1
 239              	.LVL27:
ARM GAS  C:\Users\BASILE~1\AppData\Local\Temp\ccjR6Z6O.s 			page 9


 240              	.L15:
 207:main.c        ****     for(int i = 0; i < 5; i++)
 241              		.loc 1 207 0 is_stmt 0 discriminator 1
 242 0040 0429     		cmp	r1, #4
 243 0042 F9DD     		ble	.L19
 244              	.LBE4:
 212:main.c        ****         }
 213:main.c        ****     }
 214:main.c        ****     mediaan = tmpArray[3];
 245              		.loc 1 214 0 is_stmt 1
 246 0044 BDF80A20 		ldrh	r2, [sp, #10]
 247 0048 034B     		ldr	r3, .L21+4
 248 004a 1A80     		strh	r2, [r3]	@ movhi
 215:main.c        **** }    
 249              		.loc 1 215 0
 250 004c 05B0     		add	sp, sp, #20
 251              		.cfi_def_cfa_offset 4
 252              		@ sp needed
 253 004e 10BC     		pop	{r4}
 254              		.cfi_restore 4
 255              		.cfi_def_cfa_offset 0
 256              	.LVL28:
 257 0050 7047     		bx	lr
 258              	.L22:
 259 0052 00BF     		.align	2
 260              	.L21:
 261 0054 00000000 		.word	.LANCHOR0
 262 0058 00000000 		.word	mediaan
 263              		.cfi_endproc
 264              	.LFE71:
 265              		.size	berekenMediaan, .-berekenMediaan
 266              		.section	.text.printTextopLCD,"ax",%progbits
 267              		.align	2
 268              		.global	printTextopLCD
 269              		.thumb
 270              		.thumb_func
 271              		.type	printTextopLCD, %function
 272              	printTextopLCD:
 273              	.LFB72:
 216:main.c        **** //methode die een text en een testgetal op een 
 217:main.c        **** void printTextopLCD(int testValue1, int testValue2)
 218:main.c        **** {
 274              		.loc 1 218 0
 275              		.cfi_startproc
 276              		@ args = 0, pretend = 0, frame = 0
 277              		@ frame_needed = 0, uses_anonymous_args = 0
 278              	.LVL29:
 279 0000 38B5     		push	{r3, r4, r5, lr}
 280              		.cfi_def_cfa_offset 16
 281              		.cfi_offset 3, -16
 282              		.cfi_offset 4, -12
 283              		.cfi_offset 5, -8
 284              		.cfi_offset 14, -4
 285 0002 0546     		mov	r5, r0
 286 0004 0C46     		mov	r4, r1
 219:main.c        ****     LCD_CLEAR_DISPLAY; //Clear display
 220:main.c        ****     LCD_Position(0u,0u); //Put cursor top left
ARM GAS  C:\Users\BASILE~1\AppData\Local\Temp\ccjR6Z6O.s 			page 10


 287              		.loc 1 220 0
 288 0006 0021     		movs	r1, #0
 289              	.LVL30:
 290 0008 0846     		mov	r0, r1
 291              	.LVL31:
 292 000a FFF7FEFF 		bl	LCD_Position
 293              	.LVL32:
 221:main.c        ****     LCD_PrintString("sensor: "); //print something
 294              		.loc 1 221 0
 295 000e 0948     		ldr	r0, .L25
 296 0010 FFF7FEFF 		bl	LCD_PrintString
 297              	.LVL33:
 222:main.c        ****     LCD_Position(0u,9u); //Replace cursor
 298              		.loc 1 222 0
 299 0014 0921     		movs	r1, #9
 300 0016 0020     		movs	r0, #0
 301 0018 FFF7FEFF 		bl	LCD_Position
 302              	.LVL34:
 223:main.c        ****     LCD_PrintDecUint16(testValue1); //Print the value of first ultrasoonsensor
 303              		.loc 1 223 0
 304 001c A8B2     		uxth	r0, r5
 305 001e FFF7FEFF 		bl	LCD_PrintU32Number
 306              	.LVL35:
 224:main.c        ****     LCD_Position(1u,9u); //Replace cursor
 307              		.loc 1 224 0
 308 0022 0921     		movs	r1, #9
 309 0024 0120     		movs	r0, #1
 310 0026 FFF7FEFF 		bl	LCD_Position
 311              	.LVL36:
 225:main.c        ****     LCD_PrintDecUint16(testValue2);
 312              		.loc 1 225 0
 313 002a A0B2     		uxth	r0, r4
 314 002c FFF7FEFF 		bl	LCD_PrintU32Number
 315              	.LVL37:
 316 0030 38BD     		pop	{r3, r4, r5, pc}
 317              	.LVL38:
 318              	.L26:
 319 0032 00BF     		.align	2
 320              	.L25:
 321 0034 00000000 		.word	.LC1
 322              		.cfi_endproc
 323              	.LFE72:
 324              		.size	printTextopLCD, .-printTextopLCD
 325              		.section	.text.telTot,"ax",%progbits
 326              		.align	2
 327              		.global	telTot
 328              		.thumb
 329              		.thumb_func
 330              		.type	telTot, %function
 331              	telTot:
 332              	.LFB73:
 226:main.c        **** }
 227:main.c        **** 
 228:main.c        **** //methode die van min tot max telt en de huidige tel waarde terug geeft
 229:main.c        **** uint8 telTot(uint8 getal, uint8 min, uint8 max)
 230:main.c        **** {
 333              		.loc 1 230 0
ARM GAS  C:\Users\BASILE~1\AppData\Local\Temp\ccjR6Z6O.s 			page 11


 334              		.cfi_startproc
 335              		@ args = 0, pretend = 0, frame = 0
 336              		@ frame_needed = 0, uses_anonymous_args = 0
 337              		@ link register save eliminated.
 338              	.LVL39:
 231:main.c        ****    if (getal >= min && getal <= max - 1)
 339              		.loc 1 231 0
 340 0000 8842     		cmp	r0, r1
 341 0002 05D3     		bcc	.L29
 342              		.loc 1 231 0 is_stmt 0 discriminator 1
 343 0004 013A     		subs	r2, r2, #1
 344              	.LVL40:
 345 0006 9042     		cmp	r0, r2
 346 0008 04DC     		bgt	.L30
 232:main.c        ****         {
 233:main.c        ****             getal++;
 347              		.loc 1 233 0 is_stmt 1
 348 000a 411C     		adds	r1, r0, #1
 349              	.LVL41:
 350 000c C8B2     		uxtb	r0, r1
 351              	.LVL42:
 352 000e 7047     		bx	lr
 353              	.LVL43:
 354              	.L29:
 234:main.c        ****         }   else getal = min; 
 355              		.loc 1 234 0
 356 0010 0846     		mov	r0, r1
 357              	.LVL44:
 358 0012 7047     		bx	lr
 359              	.LVL45:
 360              	.L30:
 361 0014 0846     		mov	r0, r1
 362              	.LVL46:
 235:main.c        ****    return getal;
 236:main.c        **** }
 363              		.loc 1 236 0
 364 0016 7047     		bx	lr
 365              		.cfi_endproc
 366              	.LFE73:
 367              		.size	telTot, .-telTot
 368              		.section	.text.telProcedure,"ax",%progbits
 369              		.align	2
 370              		.global	telProcedure
 371              		.thumb
 372              		.thumb_func
 373              		.type	telProcedure, %function
 374              	telProcedure:
 375              	.LFB75:
 237:main.c        **** 
 238:main.c        **** //methode die een binair getal op de LCD print
 239:main.c        **** void printBINopLCD(uint8 value, int row)
 240:main.c        **** {
 241:main.c        ****     for(int i = 0; i < 8; i++)
 242:main.c        ****     {
 243:main.c        ****         LCD_Position(row,i);
 244:main.c        ****         uint8 tmpWaarde =  exponent(2,i);
 245:main.c        ****         if ((value & tmpWaarde) == tmpWaarde)
ARM GAS  C:\Users\BASILE~1\AppData\Local\Temp\ccjR6Z6O.s 			page 12


 246:main.c        ****         {
 247:main.c        ****             LCD_PrintDecUint16(1);
 248:main.c        ****         }
 249:main.c        ****             else 
 250:main.c        ****         {
 251:main.c        ****             LCD_PrintDecUint16(0);
 252:main.c        ****         }  
 253:main.c        ****      }  
 254:main.c        **** }
 255:main.c        **** 
 256:main.c        **** //methode met delays om af te tellen
 257:main.c        **** void telProcedure(void)
 258:main.c        **** {
 376              		.loc 1 258 0
 377              		.cfi_startproc
 378              		@ args = 0, pretend = 0, frame = 0
 379              		@ frame_needed = 0, uses_anonymous_args = 0
 380 0000 08B5     		push	{r3, lr}
 381              		.cfi_def_cfa_offset 8
 382              		.cfi_offset 3, -8
 383              		.cfi_offset 14, -4
 259:main.c        ****     LED1_Write(1);
 384              		.loc 1 259 0
 385 0002 0120     		movs	r0, #1
 386 0004 FFF7FEFF 		bl	LED1_Write
 387              	.LVL47:
 260:main.c        ****     CyDelay(1000);
 388              		.loc 1 260 0
 389 0008 4FF47A70 		mov	r0, #1000
 390 000c FFF7FEFF 		bl	CyDelay
 391              	.LVL48:
 261:main.c        ****     LED2_Write(1);
 392              		.loc 1 261 0
 393 0010 0120     		movs	r0, #1
 394 0012 FFF7FEFF 		bl	LED2_Write
 395              	.LVL49:
 262:main.c        ****     CyDelay(1000);
 396              		.loc 1 262 0
 397 0016 4FF47A70 		mov	r0, #1000
 398 001a FFF7FEFF 		bl	CyDelay
 399              	.LVL50:
 263:main.c        ****     LED3_Write(1);
 400              		.loc 1 263 0
 401 001e 0120     		movs	r0, #1
 402 0020 FFF7FEFF 		bl	LED3_Write
 403              	.LVL51:
 264:main.c        ****     CyDelay(1000);
 404              		.loc 1 264 0
 405 0024 4FF47A70 		mov	r0, #1000
 406 0028 FFF7FEFF 		bl	CyDelay
 407              	.LVL52:
 265:main.c        ****     LED4_Write(1);
 408              		.loc 1 265 0
 409 002c 0120     		movs	r0, #1
 410 002e FFF7FEFF 		bl	LED4_Write
 411              	.LVL53:
 266:main.c        ****     CyDelay(1000);
ARM GAS  C:\Users\BASILE~1\AppData\Local\Temp\ccjR6Z6O.s 			page 13


 412              		.loc 1 266 0
 413 0032 4FF47A70 		mov	r0, #1000
 414 0036 FFF7FEFF 		bl	CyDelay
 415              	.LVL54:
 267:main.c        ****     LED5_Write(1);
 416              		.loc 1 267 0
 417 003a 0120     		movs	r0, #1
 418 003c FFF7FEFF 		bl	LED5_Write
 419              	.LVL55:
 268:main.c        ****     CyDelay(1000);
 420              		.loc 1 268 0
 421 0040 4FF47A70 		mov	r0, #1000
 422 0044 FFF7FEFF 		bl	CyDelay
 423              	.LVL56:
 424 0048 08BD     		pop	{r3, pc}
 425              		.cfi_endproc
 426              	.LFE75:
 427              		.size	telProcedure, .-telProcedure
 428 004a 00BF     		.section	.text.exponent,"ax",%progbits
 429              		.align	2
 430              		.global	exponent
 431              		.thumb
 432              		.thumb_func
 433              		.type	exponent, %function
 434              	exponent:
 435              	.LFB76:
 269:main.c        **** }
 270:main.c        **** 
 271:main.c        **** //methode die een macht berekend
 272:main.c        **** int exponent(int grondgetal, int exponent)
 273:main.c        **** {
 436              		.loc 1 273 0
 437              		.cfi_startproc
 438              		@ args = 0, pretend = 0, frame = 0
 439              		@ frame_needed = 0, uses_anonymous_args = 0
 440              		@ link register save eliminated.
 441              	.LVL57:
 442 0000 0246     		mov	r2, r0
 443              	.LVL58:
 444              	.LBB7:
 274:main.c        ****     uint8 tmpWaarde = 1;
 275:main.c        ****     for (int i = 0; i < exponent ; i ++)
 445              		.loc 1 275 0
 446 0002 0023     		movs	r3, #0
 447              	.LBE7:
 274:main.c        ****     uint8 tmpWaarde = 1;
 448              		.loc 1 274 0
 449 0004 0120     		movs	r0, #1
 450              	.LVL59:
 451              	.LBB8:
 452              		.loc 1 275 0
 453 0006 03E0     		b	.L34
 454              	.LVL60:
 455              	.L35:
 276:main.c        ****     {
 277:main.c        ****         tmpWaarde = tmpWaarde * grondgetal;
 456              		.loc 1 277 0 discriminator 3
ARM GAS  C:\Users\BASILE~1\AppData\Local\Temp\ccjR6Z6O.s 			page 14


 457 0008 02FB00F0 		mul	r0, r2, r0
 458              	.LVL61:
 459 000c C0B2     		uxtb	r0, r0
 460              	.LVL62:
 275:main.c        ****     {
 461              		.loc 1 275 0 discriminator 3
 462 000e 0133     		adds	r3, r3, #1
 463              	.LVL63:
 464              	.L34:
 275:main.c        ****     {
 465              		.loc 1 275 0 is_stmt 0 discriminator 1
 466 0010 8B42     		cmp	r3, r1
 467 0012 F9DB     		blt	.L35
 468              	.LBE8:
 278:main.c        ****     }
 279:main.c        ****     return tmpWaarde;
 280:main.c        **** }
 469              		.loc 1 280 0 is_stmt 1
 470 0014 7047     		bx	lr
 471              		.cfi_endproc
 472              	.LFE76:
 473              		.size	exponent, .-exponent
 474 0016 00BF     		.section	.text.IRSensoren,"ax",%progbits
 475              		.align	2
 476              		.global	IRSensoren
 477              		.thumb
 478              		.thumb_func
 479              		.type	IRSensoren, %function
 480              	IRSensoren:
 481              	.LFB64:
  42:main.c        ****     uint8 tmpWaarden = IRWaarden;
 482              		.loc 1 42 0
 483              		.cfi_startproc
 484              		@ args = 0, pretend = 0, frame = 0
 485              		@ frame_needed = 0, uses_anonymous_args = 0
 486 0000 10B5     		push	{r4, lr}
 487              		.cfi_def_cfa_offset 8
 488              		.cfi_offset 4, -8
 489              		.cfi_offset 14, -4
 490              	.LVL64:
  44:main.c        ****    for(int i = 0; i < 8; i++)
 491              		.loc 1 44 0
 492 0002 0024     		movs	r4, #0
 493 0004 0B4B     		ldr	r3, .L41
 494 0006 1C70     		strb	r4, [r3]
 495              	.LVL65:
 496              	.LBB9:
  45:main.c        ****    {
 497              		.loc 1 45 0
 498 0008 10E0     		b	.L37
 499              	.LVL66:
 500              	.L39:
  47:main.c        ****     {
 501              		.loc 1 47 0
 502 000a A0B2     		uxth	r0, r4
 503 000c FFF7FEFF 		bl	ADC_IR_GetResult16
 504              	.LVL67:
ARM GAS  C:\Users\BASILE~1\AppData\Local\Temp\ccjR6Z6O.s 			page 15


 505 0010 094B     		ldr	r3, .L41+4
 506 0012 1B78     		ldrb	r3, [r3]	@ zero_extendqisi2
 507 0014 9842     		cmp	r0, r3
 508 0016 08DD     		ble	.L38
 509              	.LBB10:
  49:main.c        ****        IRWaarden = IRWaarden | tmpWaarde;
 510              		.loc 1 49 0
 511 0018 2146     		mov	r1, r4
 512 001a 0220     		movs	r0, #2
 513 001c FFF7FEFF 		bl	exponent
 514              	.LVL68:
 515 0020 C0B2     		uxtb	r0, r0
 516              	.LVL69:
  50:main.c        ****     }
 517              		.loc 1 50 0
 518 0022 044A     		ldr	r2, .L41
 519 0024 1378     		ldrb	r3, [r2]	@ zero_extendqisi2
 520 0026 1843     		orrs	r0, r0, r3
 521              	.LVL70:
 522 0028 1070     		strb	r0, [r2]
 523              	.L38:
 524              	.LBE10:
  45:main.c        ****    {
 525              		.loc 1 45 0 discriminator 2
 526 002a 0134     		adds	r4, r4, #1
 527              	.LVL71:
 528              	.L37:
  45:main.c        ****    {
 529              		.loc 1 45 0 is_stmt 0 discriminator 1
 530 002c 072C     		cmp	r4, #7
 531 002e ECDD     		ble	.L39
 532              	.LBE9:
  53:main.c        ****   
 533              		.loc 1 53 0 is_stmt 1
 534 0030 10BD     		pop	{r4, pc}
 535              	.LVL72:
 536              	.L42:
 537 0032 00BF     		.align	2
 538              	.L41:
 539 0034 00000000 		.word	IRWaarden
 540 0038 00000000 		.word	.LANCHOR1
 541              		.cfi_endproc
 542              	.LFE64:
 543              		.size	IRSensoren, .-IRSensoren
 544              		.section	.text.printBINopLCD,"ax",%progbits
 545              		.align	2
 546              		.global	printBINopLCD
 547              		.thumb
 548              		.thumb_func
 549              		.type	printBINopLCD, %function
 550              	printBINopLCD:
 551              	.LFB74:
 240:main.c        ****     for(int i = 0; i < 8; i++)
 552              		.loc 1 240 0
 553              		.cfi_startproc
 554              		@ args = 0, pretend = 0, frame = 0
 555              		@ frame_needed = 0, uses_anonymous_args = 0
ARM GAS  C:\Users\BASILE~1\AppData\Local\Temp\ccjR6Z6O.s 			page 16


 556              	.LVL73:
 557 0000 70B5     		push	{r4, r5, r6, lr}
 558              		.cfi_def_cfa_offset 16
 559              		.cfi_offset 4, -16
 560              		.cfi_offset 5, -12
 561              		.cfi_offset 6, -8
 562              		.cfi_offset 14, -4
 563 0002 0646     		mov	r6, r0
 564 0004 0D46     		mov	r5, r1
 565              	.LVL74:
 566              	.LBB11:
 241:main.c        ****     {
 567              		.loc 1 241 0
 568 0006 0024     		movs	r4, #0
 569 0008 13E0     		b	.L44
 570              	.LVL75:
 571              	.L47:
 572              	.LBB12:
 243:main.c        ****         uint8 tmpWaarde =  exponent(2,i);
 573              		.loc 1 243 0
 574 000a E1B2     		uxtb	r1, r4
 575 000c E8B2     		uxtb	r0, r5
 576 000e FFF7FEFF 		bl	LCD_Position
 577              	.LVL76:
 244:main.c        ****         if ((value & tmpWaarde) == tmpWaarde)
 578              		.loc 1 244 0
 579 0012 2146     		mov	r1, r4
 580 0014 0220     		movs	r0, #2
 581 0016 FFF7FEFF 		bl	exponent
 582              	.LVL77:
 583 001a C0B2     		uxtb	r0, r0
 584              	.LVL78:
 245:main.c        ****         {
 585              		.loc 1 245 0
 586 001c 30EA0603 		bics	r3, r0, r6
 587 0020 03D1     		bne	.L45
 247:main.c        ****         }
 588              		.loc 1 247 0
 589 0022 0120     		movs	r0, #1
 590              	.LVL79:
 591 0024 FFF7FEFF 		bl	LCD_PrintU32Number
 592              	.LVL80:
 593 0028 02E0     		b	.L46
 594              	.LVL81:
 595              	.L45:
 251:main.c        ****         }  
 596              		.loc 1 251 0
 597 002a 0020     		movs	r0, #0
 598              	.LVL82:
 599 002c FFF7FEFF 		bl	LCD_PrintU32Number
 600              	.LVL83:
 601              	.L46:
 602              	.LBE12:
 241:main.c        ****     {
 603              		.loc 1 241 0 discriminator 2
 604 0030 0134     		adds	r4, r4, #1
 605              	.LVL84:
ARM GAS  C:\Users\BASILE~1\AppData\Local\Temp\ccjR6Z6O.s 			page 17


 606              	.L44:
 241:main.c        ****     {
 607              		.loc 1 241 0 is_stmt 0 discriminator 1
 608 0032 072C     		cmp	r4, #7
 609 0034 E9DD     		ble	.L47
 610              	.LBE11:
 254:main.c        **** 
 611              		.loc 1 254 0 is_stmt 1
 612 0036 70BD     		pop	{r4, r5, r6, pc}
 613              		.cfi_endproc
 614              	.LFE74:
 615              		.size	printBINopLCD, .-printBINopLCD
 616              		.section	.text.DecToHex,"ax",%progbits
 617              		.align	2
 618              		.global	DecToHex
 619              		.thumb
 620              		.thumb_func
 621              		.type	DecToHex, %function
 622              	DecToHex:
 623              	.LFB79:
 281:main.c        **** 
 282:main.c        **** void ProcessCommandMsg(void){
 283:main.c        **** //    sprintf(strMsg1,"Commando bevat %d waarden\r", strlen(RB.valstr));
 284:main.c        **** //    puttyUart1_PutString(strMsg1);
 285:main.c        ****     //1ste waarde zijn de IR sensoren 2e waarde is een testgetal
 286:main.c        ****     if (RB.cmd == 'R')
 287:main.c        ****     {  
 288:main.c        ****         pwmMotor1 = getCMDValue('/', RB.valstr);
 289:main.c        ****         //sprintf(strMsg1,"IRWaarde=%u\n", IRWaarden); 
 290:main.c        ****         //puttyUart1_PutString(strMsg1);
 291:main.c        **** 
 292:main.c        ****     } 
 293:main.c        ****     else if (RB.cmd == 'L')
 294:main.c        ****     {
 295:main.c        ****         pwmMotor2 = getCMDValue('/', RB.valstr);
 296:main.c        ****         //sprintf(strMsg1,"TestGetal=%u\n", TestGetal); 
 297:main.c        ****         //puttyUart1_PutString(strMsg1);
 298:main.c        ****     }
 299:main.c        ****     else if (RB.cmd == 'M')
 300:main.c        ****     {
 301:main.c        ****         
 302:main.c        ****         uint8 enable = getCMDValue('/', RB.valstr);
 303:main.c        ****         ENA_Write(enable);
 304:main.c        ****         ENB_Write(enable);
 305:main.c        ****         //sprintf(strMsg1,"TestGetal=%u\n", TestGetal); 
 306:main.c        ****         //puttyUart1_PutString(strMsg1);
 307:main.c        ****     }
 308:main.c        ****         
 309:main.c        **** }
 310:main.c        **** uint8 getCMDValue(char delimiter, char str[])
 311:main.c        **** {
 312:main.c        ****     for (uint i = 0; i < strlen(str); i++)
 313:main.c        ****         {
 314:main.c        ****             if (str[i] == delimiter && str[i+3] == delimiter)
 315:main.c        ****             {
 316:main.c        ****                 hexaDecBuffer[0] = str[i+1];
 317:main.c        ****                 hexaDecBuffer[1] = str[i+2];
ARM GAS  C:\Users\BASILE~1\AppData\Local\Temp\ccjR6Z6O.s 			page 18


 318:main.c        ****                 //sprintf(strMsg1,"IRWaarde=%u ", IRWaarden); 
 319:main.c        ****                 //puttyUart1_PutString(strMsg1);
 320:main.c        ****             }    
 321:main.c        ****         }
 322:main.c        ****         
 323:main.c        ****     return HexToDec(hexaDecBuffer);
 324:main.c        **** }
 325:main.c        **** void DecToHex(uint8 value)
 326:main.c        **** {
 624              		.loc 1 326 0
 625              		.cfi_startproc
 626              		@ args = 0, pretend = 0, frame = 0
 627              		@ frame_needed = 0, uses_anonymous_args = 0
 628              		@ link register save eliminated.
 629              	.LVL85:
 327:main.c        ****     uint8 i = 1;
 328:main.c        ****     if (value == 0)
 630              		.loc 1 328 0
 631 0000 0146     		mov	r1, r0
 632 0002 18B9     		cbnz	r0, .L50
 329:main.c        ****     {
 330:main.c        ****         hexaDecBuffer[0] =  '0';
 633              		.loc 1 330 0
 634 0004 0C4B     		ldr	r3, .L55
 635 0006 3022     		movs	r2, #48
 636 0008 1A70     		strb	r2, [r3]
 331:main.c        ****         hexaDecBuffer[1] ='0';
 637              		.loc 1 331 0
 638 000a 5A70     		strb	r2, [r3, #1]
 639              	.L50:
 326:main.c        ****     uint8 i = 1;
 640              		.loc 1 326 0
 641 000c 0123     		movs	r3, #1
 642 000e 0FE0     		b	.L51
 643              	.LVL86:
 644              	.L54:
 645              	.LBB13:
 332:main.c        ****     }
 333:main.c        ****     while (value != 0)
 334:main.c        ****     {
 335:main.c        ****         uint8 temp = value % 16;
 646              		.loc 1 335 0
 647 0010 01F00F02 		and	r2, r1, #15
 648              	.LVL87:
 336:main.c        ****         if (temp < 10)
 649              		.loc 1 336 0
 650 0014 092A     		cmp	r2, #9
 651 0016 05D8     		bhi	.L52
 337:main.c        ****         {
 338:main.c        ****          hexaDecBuffer[i] = temp + 48;
 652              		.loc 1 338 0
 653 0018 3032     		adds	r2, r2, #48
 654              	.LVL88:
 655 001a 0748     		ldr	r0, .L55
 656 001c C254     		strb	r2, [r0, r3]
 339:main.c        ****         i--;
 657              		.loc 1 339 0
ARM GAS  C:\Users\BASILE~1\AppData\Local\Temp\ccjR6Z6O.s 			page 19


 658 001e 013B     		subs	r3, r3, #1
 659              	.LVL89:
 660 0020 DBB2     		uxtb	r3, r3
 661              	.LVL90:
 662 0022 04E0     		b	.L53
 663              	.LVL91:
 664              	.L52:
 340:main.c        ****         } 
 341:main.c        ****         else 
 342:main.c        ****         {
 343:main.c        ****             hexaDecBuffer[i] = temp + 55;
 665              		.loc 1 343 0
 666 0024 3732     		adds	r2, r2, #55
 667              	.LVL92:
 668 0026 0448     		ldr	r0, .L55
 669 0028 C254     		strb	r2, [r0, r3]
 344:main.c        ****             i--;
 670              		.loc 1 344 0
 671 002a 013B     		subs	r3, r3, #1
 672              	.LVL93:
 673 002c DBB2     		uxtb	r3, r3
 674              	.LVL94:
 675              	.L53:
 345:main.c        ****         }
 346:main.c        ****         value = value / 16;
 676              		.loc 1 346 0
 677 002e 0909     		lsrs	r1, r1, #4
 678              	.LVL95:
 679              	.L51:
 680              	.LBE13:
 333:main.c        ****     {
 681              		.loc 1 333 0
 682 0030 0029     		cmp	r1, #0
 683 0032 EDD1     		bne	.L54
 347:main.c        ****     }
 348:main.c        **** }
 684              		.loc 1 348 0
 685 0034 7047     		bx	lr
 686              	.L56:
 687 0036 00BF     		.align	2
 688              	.L55:
 689 0038 00000000 		.word	hexaDecBuffer
 690              		.cfi_endproc
 691              	.LFE79:
 692              		.size	DecToHex, .-DecToHex
 693              		.section	.text.SwitchMotorEN,"ax",%progbits
 694              		.align	2
 695              		.global	SwitchMotorEN
 696              		.thumb
 697              		.thumb_func
 698              		.type	SwitchMotorEN, %function
 699              	SwitchMotorEN:
 700              	.LFB65:
  56:main.c        ****    //ENA_Write(~ENA_Read());
 701              		.loc 1 56 0
 702              		.cfi_startproc
 703              		@ args = 0, pretend = 0, frame = 16
ARM GAS  C:\Users\BASILE~1\AppData\Local\Temp\ccjR6Z6O.s 			page 20


 704              		@ frame_needed = 0, uses_anonymous_args = 0
 705 0000 10B5     		push	{r4, lr}
 706              		.cfi_def_cfa_offset 8
 707              		.cfi_offset 4, -8
 708              		.cfi_offset 14, -4
 709 0002 84B0     		sub	sp, sp, #16
 710              		.cfi_def_cfa_offset 24
  60:main.c        ****     sprintf(strBuffer, "I/%s/\r", hexaDecBuffer); 
 711              		.loc 1 60 0
 712 0004 0E4B     		ldr	r3, .L59
 713 0006 1878     		ldrb	r0, [r3]	@ zero_extendqisi2
 714 0008 FFF7FEFF 		bl	DecToHex
 715              	.LVL96:
  61:main.c        ****     BleUart_PutString(strBuffer);
 716              		.loc 1 61 0
 717 000c 0D4C     		ldr	r4, .L59+4
 718 000e 2246     		mov	r2, r4
 719 0010 0D49     		ldr	r1, .L59+8
 720 0012 01A8     		add	r0, sp, #4
 721 0014 FFF7FEFF 		bl	sprintf
 722              	.LVL97:
  62:main.c        ****     
 723              		.loc 1 62 0
 724 0018 01A8     		add	r0, sp, #4
 725 001a FFF7FEFF 		bl	BleUart_PutString
 726              	.LVL98:
  64:main.c        ****     sprintf(strBuffer,"T/%s/\r",hexaDecBuffer); 
 727              		.loc 1 64 0
 728 001e 0020     		movs	r0, #0
 729 0020 FFF7FEFF 		bl	ADC_IR_GetResult16
 730              	.LVL99:
 731 0024 C0B2     		uxtb	r0, r0
 732 0026 FFF7FEFF 		bl	DecToHex
 733              	.LVL100:
  65:main.c        ****     BleUart_PutString(strBuffer);
 734              		.loc 1 65 0
 735 002a 2246     		mov	r2, r4
 736 002c 0749     		ldr	r1, .L59+12
 737 002e 01A8     		add	r0, sp, #4
 738 0030 FFF7FEFF 		bl	sprintf
 739              	.LVL101:
  66:main.c        ****     
 740              		.loc 1 66 0
 741 0034 01A8     		add	r0, sp, #4
 742 0036 FFF7FEFF 		bl	BleUart_PutString
 743              	.LVL102:
  68:main.c        **** 
 744              		.loc 1 68 0
 745 003a 04B0     		add	sp, sp, #16
 746              		.cfi_def_cfa_offset 8
 747              		@ sp needed
 748 003c 10BD     		pop	{r4, pc}
 749              	.L60:
 750 003e 00BF     		.align	2
 751              	.L59:
 752 0040 00000000 		.word	IRWaarden
 753 0044 00000000 		.word	hexaDecBuffer
ARM GAS  C:\Users\BASILE~1\AppData\Local\Temp\ccjR6Z6O.s 			page 21


 754 0048 0C000000 		.word	.LC2
 755 004c 14000000 		.word	.LC3
 756              		.cfi_endproc
 757              	.LFE65:
 758              		.size	SwitchMotorEN, .-SwitchMotorEN
 759              		.section	.text.sendBleData,"ax",%progbits
 760              		.align	2
 761              		.global	sendBleData
 762              		.thumb
 763              		.thumb_func
 764              		.type	sendBleData, %function
 765              	sendBleData:
 766              	.LFB66:
  71:main.c        ****     char strBuffer[10];
 767              		.loc 1 71 0
 768              		.cfi_startproc
 769              		@ args = 0, pretend = 0, frame = 16
 770              		@ frame_needed = 0, uses_anonymous_args = 0
 771 0000 10B5     		push	{r4, lr}
 772              		.cfi_def_cfa_offset 8
 773              		.cfi_offset 4, -8
 774              		.cfi_offset 14, -4
 775 0002 84B0     		sub	sp, sp, #16
 776              		.cfi_def_cfa_offset 24
  73:main.c        ****     
 777              		.loc 1 73 0
 778 0004 FFF7FEFF 		bl	LED1_Read
 779              	.LVL103:
 780 0008 C043     		mvns	r0, r0
 781 000a C0B2     		uxtb	r0, r0
 782 000c FFF7FEFF 		bl	LED1_Write
 783              	.LVL104:
  75:main.c        ****     sprintf(strBuffer, "I/%s/\r", hexaDecBuffer); 
 784              		.loc 1 75 0
 785 0010 0E4B     		ldr	r3, .L63
 786 0012 1878     		ldrb	r0, [r3]	@ zero_extendqisi2
 787 0014 FFF7FEFF 		bl	DecToHex
 788              	.LVL105:
  76:main.c        ****     BleUart_PutString(strBuffer);
 789              		.loc 1 76 0
 790 0018 0D4C     		ldr	r4, .L63+4
 791 001a 2246     		mov	r2, r4
 792 001c 0D49     		ldr	r1, .L63+8
 793 001e 01A8     		add	r0, sp, #4
 794 0020 FFF7FEFF 		bl	sprintf
 795              	.LVL106:
  77:main.c        ****     
 796              		.loc 1 77 0
 797 0024 01A8     		add	r0, sp, #4
 798 0026 FFF7FEFF 		bl	BleUart_PutString
 799              	.LVL107:
  79:main.c        ****     sprintf(strBuffer, "T/%s/\r",hexaDecBuffer); 
 800              		.loc 1 79 0
 801 002a 0020     		movs	r0, #0
 802 002c FFF7FEFF 		bl	ADC_IR_GetResult16
 803              	.LVL108:
 804 0030 C0B2     		uxtb	r0, r0
ARM GAS  C:\Users\BASILE~1\AppData\Local\Temp\ccjR6Z6O.s 			page 22


 805 0032 FFF7FEFF 		bl	DecToHex
 806              	.LVL109:
  80:main.c        ****     BleUart_PutString(strBuffer);
 807              		.loc 1 80 0
 808 0036 2246     		mov	r2, r4
 809 0038 0749     		ldr	r1, .L63+12
 810 003a 01A8     		add	r0, sp, #4
 811 003c FFF7FEFF 		bl	sprintf
 812              	.LVL110:
  81:main.c        **** }
 813              		.loc 1 81 0
 814 0040 01A8     		add	r0, sp, #4
 815 0042 FFF7FEFF 		bl	BleUart_PutString
 816              	.LVL111:
  82:main.c        **** 
 817              		.loc 1 82 0
 818 0046 04B0     		add	sp, sp, #16
 819              		.cfi_def_cfa_offset 8
 820              		@ sp needed
 821 0048 10BD     		pop	{r4, pc}
 822              	.L64:
 823 004a 00BF     		.align	2
 824              	.L63:
 825 004c 00000000 		.word	IRWaarden
 826 0050 00000000 		.word	hexaDecBuffer
 827 0054 0C000000 		.word	.LC2
 828 0058 14000000 		.word	.LC3
 829              		.cfi_endproc
 830              	.LFE66:
 831              		.size	sendBleData, .-sendBleData
 832              		.section	.text.HexToDec,"ax",%progbits
 833              		.align	2
 834              		.global	HexToDec
 835              		.thumb
 836              		.thumb_func
 837              		.type	HexToDec, %function
 838              	HexToDec:
 839              	.LFB80:
 349:main.c        **** 
 350:main.c        **** uint8 HexToDec(char hexVal[])
 351:main.c        **** {
 840              		.loc 1 351 0
 841              		.cfi_startproc
 842              		@ args = 0, pretend = 0, frame = 0
 843              		@ frame_needed = 0, uses_anonymous_args = 0
 844              	.LVL112:
 845 0000 38B5     		push	{r3, r4, r5, lr}
 846              		.cfi_def_cfa_offset 16
 847              		.cfi_offset 3, -16
 848              		.cfi_offset 4, -12
 849              		.cfi_offset 5, -8
 850              		.cfi_offset 14, -4
 851 0002 0446     		mov	r4, r0
 352:main.c        ****     uint8 len = strlen(hexVal);
 852              		.loc 1 352 0
 853 0004 FFF7FEFF 		bl	strlen
 854              	.LVL113:
ARM GAS  C:\Users\BASILE~1\AppData\Local\Temp\ccjR6Z6O.s 			page 23


 855              	.LBB14:
 353:main.c        ****     uint base = 1;
 354:main.c        ****     uint dec_val =0;
 355:main.c        ****     for (int i=len-1; i>=0; i--)
 856              		.loc 1 355 0
 857 0008 C0B2     		uxtb	r0, r0
 858 000a 421E     		subs	r2, r0, #1
 859              	.LVL114:
 860              	.LBE14:
 354:main.c        ****     for (int i=len-1; i>=0; i--)
 861              		.loc 1 354 0
 862 000c 0020     		movs	r0, #0
 863              	.LVL115:
 353:main.c        ****     uint base = 1;
 864              		.loc 1 353 0
 865 000e 0125     		movs	r5, #1
 866              	.LBB15:
 867              		.loc 1 355 0
 868 0010 14E0     		b	.L66
 869              	.LVL116:
 870              	.L69:
 356:main.c        ****     {
 357:main.c        ****         if (hexVal[i] >= '0' && hexVal[i] <='9')
 871              		.loc 1 357 0
 872 0012 A35C     		ldrb	r3, [r4, r2]	@ zero_extendqisi2
 873 0014 A3F13001 		sub	r1, r3, #48
 874 0018 C9B2     		uxtb	r1, r1
 875 001a 0929     		cmp	r1, #9
 876 001c 04D8     		bhi	.L67
 358:main.c        ****         {
 359:main.c        ****          dec_val += (hexVal[i] - 48) * base;
 877              		.loc 1 359 0
 878 001e 303B     		subs	r3, r3, #48
 879 0020 05FB0300 		mla	r0, r5, r3, r0
 880              	.LVL117:
 360:main.c        ****          base = base*16;   
 881              		.loc 1 360 0
 882 0024 2D01     		lsls	r5, r5, #4
 883              	.LVL118:
 884 0026 08E0     		b	.L68
 885              	.L67:
 361:main.c        ****         } else if (hexVal[i]>='A' && hexVal[i]<='F')
 886              		.loc 1 361 0
 887 0028 A3F14101 		sub	r1, r3, #65
 888 002c C9B2     		uxtb	r1, r1
 889 002e 0529     		cmp	r1, #5
 890 0030 03D8     		bhi	.L68
 362:main.c        ****         {
 363:main.c        ****             dec_val += (hexVal[i] - 55)*base;
 891              		.loc 1 363 0
 892 0032 373B     		subs	r3, r3, #55
 893 0034 05FB0300 		mla	r0, r5, r3, r0
 894              	.LVL119:
 364:main.c        ****             base = base*16;
 895              		.loc 1 364 0
 896 0038 2D01     		lsls	r5, r5, #4
 897              	.LVL120:
ARM GAS  C:\Users\BASILE~1\AppData\Local\Temp\ccjR6Z6O.s 			page 24


 898              	.L68:
 355:main.c        ****     {
 899              		.loc 1 355 0 discriminator 2
 900 003a 013A     		subs	r2, r2, #1
 901              	.LVL121:
 902              	.L66:
 355:main.c        ****     {
 903              		.loc 1 355 0 is_stmt 0 discriminator 1
 904 003c 002A     		cmp	r2, #0
 905 003e E8DA     		bge	.L69
 906              	.LBE15:
 365:main.c        ****         }
 366:main.c        ****     }
 367:main.c        ****     return dec_val;
 368:main.c        **** }
 907              		.loc 1 368 0 is_stmt 1
 908 0040 C0B2     		uxtb	r0, r0
 909              	.LVL122:
 910 0042 38BD     		pop	{r3, r4, r5, pc}
 911              		.cfi_endproc
 912              	.LFE80:
 913              		.size	HexToDec, .-HexToDec
 914              		.section	.text.getCMDValue,"ax",%progbits
 915              		.align	2
 916              		.global	getCMDValue
 917              		.thumb
 918              		.thumb_func
 919              		.type	getCMDValue, %function
 920              	getCMDValue:
 921              	.LFB78:
 311:main.c        ****     for (uint i = 0; i < strlen(str); i++)
 922              		.loc 1 311 0
 923              		.cfi_startproc
 924              		@ args = 0, pretend = 0, frame = 0
 925              		@ frame_needed = 0, uses_anonymous_args = 0
 926              	.LVL123:
 927 0000 70B5     		push	{r4, r5, r6, lr}
 928              		.cfi_def_cfa_offset 16
 929              		.cfi_offset 4, -16
 930              		.cfi_offset 5, -12
 931              		.cfi_offset 6, -8
 932              		.cfi_offset 14, -4
 933 0002 0646     		mov	r6, r0
 934 0004 0D46     		mov	r5, r1
 935              	.LVL124:
 936              	.LBB16:
 312:main.c        ****         {
 937              		.loc 1 312 0
 938 0006 0024     		movs	r4, #0
 939 0008 0DE0     		b	.L72
 940              	.LVL125:
 941              	.L74:
 314:main.c        ****             {
 942              		.loc 1 314 0
 943 000a 2B5D     		ldrb	r3, [r5, r4]	@ zero_extendqisi2
 944 000c B342     		cmp	r3, r6
 945 000e 09D1     		bne	.L73
ARM GAS  C:\Users\BASILE~1\AppData\Local\Temp\ccjR6Z6O.s 			page 25


 314:main.c        ****             {
 946              		.loc 1 314 0 is_stmt 0 discriminator 1
 947 0010 E31C     		adds	r3, r4, #3
 948 0012 EB5C     		ldrb	r3, [r5, r3]	@ zero_extendqisi2
 949 0014 9E42     		cmp	r6, r3
 950 0016 05D1     		bne	.L73
 316:main.c        ****                 hexaDecBuffer[1] = str[i+2];
 951              		.loc 1 316 0 is_stmt 1
 952 0018 2A19     		adds	r2, r5, r4
 953 001a 5178     		ldrb	r1, [r2, #1]	@ zero_extendqisi2
 954 001c 064B     		ldr	r3, .L76
 955 001e 1970     		strb	r1, [r3]
 317:main.c        ****                 //sprintf(strMsg1,"IRWaarde=%u ", IRWaarden); 
 956              		.loc 1 317 0
 957 0020 9278     		ldrb	r2, [r2, #2]	@ zero_extendqisi2
 958 0022 5A70     		strb	r2, [r3, #1]
 959              	.L73:
 312:main.c        ****         {
 960              		.loc 1 312 0 discriminator 2
 961 0024 0134     		adds	r4, r4, #1
 962              	.LVL126:
 963              	.L72:
 312:main.c        ****         {
 964              		.loc 1 312 0 is_stmt 0 discriminator 1
 965 0026 2846     		mov	r0, r5
 966 0028 FFF7FEFF 		bl	strlen
 967              	.LVL127:
 968 002c 8442     		cmp	r4, r0
 969 002e ECD3     		bcc	.L74
 970              	.LBE16:
 323:main.c        **** }
 971              		.loc 1 323 0 is_stmt 1
 972 0030 0148     		ldr	r0, .L76
 973 0032 FFF7FEFF 		bl	HexToDec
 974              	.LVL128:
 324:main.c        **** void DecToHex(uint8 value)
 975              		.loc 1 324 0
 976 0036 70BD     		pop	{r4, r5, r6, pc}
 977              	.LVL129:
 978              	.L77:
 979              		.align	2
 980              	.L76:
 981 0038 00000000 		.word	hexaDecBuffer
 982              		.cfi_endproc
 983              	.LFE78:
 984              		.size	getCMDValue, .-getCMDValue
 985              		.section	.text.ProcessCommandMsg,"ax",%progbits
 986              		.align	2
 987              		.global	ProcessCommandMsg
 988              		.thumb
 989              		.thumb_func
 990              		.type	ProcessCommandMsg, %function
 991              	ProcessCommandMsg:
 992              	.LFB77:
 282:main.c        **** //    sprintf(strMsg1,"Commando bevat %d waarden\r", strlen(RB.valstr));
 993              		.loc 1 282 0
 994              		.cfi_startproc
ARM GAS  C:\Users\BASILE~1\AppData\Local\Temp\ccjR6Z6O.s 			page 26


 995              		@ args = 0, pretend = 0, frame = 0
 996              		@ frame_needed = 0, uses_anonymous_args = 0
 997 0000 10B5     		push	{r4, lr}
 998              		.cfi_def_cfa_offset 8
 999              		.cfi_offset 4, -8
 1000              		.cfi_offset 14, -4
 286:main.c        ****     {  
 1001              		.loc 1 286 0
 1002 0002 104B     		ldr	r3, .L83
 1003 0004 1B78     		ldrb	r3, [r3]	@ zero_extendqisi2
 1004 0006 522B     		cmp	r3, #82
 1005 0008 06D1     		bne	.L79
 288:main.c        ****         //sprintf(strMsg1,"IRWaarde=%u\n", IRWaarden); 
 1006              		.loc 1 288 0
 1007 000a 0F49     		ldr	r1, .L83+4
 1008 000c 2F20     		movs	r0, #47
 1009 000e FFF7FEFF 		bl	getCMDValue
 1010              	.LVL130:
 1011 0012 0E4B     		ldr	r3, .L83+8
 1012 0014 1870     		strb	r0, [r3]
 1013 0016 10BD     		pop	{r4, pc}
 1014              	.L79:
 293:main.c        ****     {
 1015              		.loc 1 293 0
 1016 0018 4C2B     		cmp	r3, #76
 1017 001a 06D1     		bne	.L81
 295:main.c        ****         //sprintf(strMsg1,"TestGetal=%u\n", TestGetal); 
 1018              		.loc 1 295 0
 1019 001c 0A49     		ldr	r1, .L83+4
 1020 001e 2F20     		movs	r0, #47
 1021 0020 FFF7FEFF 		bl	getCMDValue
 1022              	.LVL131:
 1023 0024 094B     		ldr	r3, .L83+8
 1024 0026 5870     		strb	r0, [r3, #1]
 1025 0028 10BD     		pop	{r4, pc}
 1026              	.L81:
 299:main.c        ****     {
 1027              		.loc 1 299 0
 1028 002a 4D2B     		cmp	r3, #77
 1029 002c 09D1     		bne	.L78
 1030              	.LBB17:
 302:main.c        ****         ENA_Write(enable);
 1031              		.loc 1 302 0
 1032 002e 0649     		ldr	r1, .L83+4
 1033 0030 2F20     		movs	r0, #47
 1034 0032 FFF7FEFF 		bl	getCMDValue
 1035              	.LVL132:
 1036 0036 0446     		mov	r4, r0
 1037              	.LVL133:
 303:main.c        ****         ENB_Write(enable);
 1038              		.loc 1 303 0
 1039 0038 FFF7FEFF 		bl	ENA_Write
 1040              	.LVL134:
 304:main.c        ****         //sprintf(strMsg1,"TestGetal=%u\n", TestGetal); 
 1041              		.loc 1 304 0
 1042 003c 2046     		mov	r0, r4
 1043 003e FFF7FEFF 		bl	ENB_Write
ARM GAS  C:\Users\BASILE~1\AppData\Local\Temp\ccjR6Z6O.s 			page 27


 1044              	.LVL135:
 1045              	.L78:
 1046 0042 10BD     		pop	{r4, pc}
 1047              	.L84:
 1048              		.align	2
 1049              	.L83:
 1050 0044 00000000 		.word	RB
 1051 0048 01000000 		.word	RB+1
 1052 004c 00000000 		.word	.LANCHOR2
 1053              	.LBE17:
 1054              		.cfi_endproc
 1055              	.LFE77:
 1056              		.size	ProcessCommandMsg, .-ProcessCommandMsg
 1057              		.section	.text.main,"ax",%progbits
 1058              		.align	2
 1059              		.global	main
 1060              		.thumb
 1061              		.thumb_func
 1062              		.type	main, %function
 1063              	main:
 1064              	.LFB67:
  85:main.c        ****     CyGlobalIntEnable; /* Enable global interrupts. */
 1065              		.loc 1 85 0
 1066              		.cfi_startproc
 1067              		@ Volatile: function does not return.
 1068              		@ args = 0, pretend = 0, frame = 0
 1069              		@ frame_needed = 0, uses_anonymous_args = 0
 1070 0000 08B5     		push	{r3, lr}
 1071              		.cfi_def_cfa_offset 8
 1072              		.cfi_offset 3, -8
 1073              		.cfi_offset 14, -4
  86:main.c        ****     
 1074              		.loc 1 86 0
 1075              		.syntax unified
 1076              	@ 86 "main.c" 1
 1077 0002 62B6     		CPSIE   i
 1078              	@ 0 "" 2
  88:main.c        ****     
 1079              		.loc 1 88 0
 1080              		.thumb
 1081              		.syntax unified
 1082 0004 FFF7FEFF 		bl	initFirmwire
 1083              	.LVL136:
  91:main.c        ****     EnMotorISR_StartEx(SwitchMotorEN);
 1084              		.loc 1 91 0
 1085 0008 2248     		ldr	r0, .L90
 1086 000a FFF7FEFF 		bl	readIRSensors_StartEx
 1087              	.LVL137:
  92:main.c        ****     BleRxISR_StartEx(MyRxInt);
 1088              		.loc 1 92 0
 1089 000e 2248     		ldr	r0, .L90+4
 1090 0010 FFF7FEFF 		bl	EnMotorISR_StartEx
 1091              	.LVL138:
  93:main.c        ****     SendBleDataISR_StartEx(sendBleData);
 1092              		.loc 1 93 0
 1093 0014 2148     		ldr	r0, .L90+8
 1094 0016 FFF7FEFF 		bl	BleRxISR_StartEx
ARM GAS  C:\Users\BASILE~1\AppData\Local\Temp\ccjR6Z6O.s 			page 28


 1095              	.LVL139:
  94:main.c        ****     
 1096              		.loc 1 94 0
 1097 001a 2148     		ldr	r0, .L90+12
 1098 001c FFF7FEFF 		bl	SendBleDataISR_StartEx
 1099              	.LVL140:
  96:main.c        ****     LCD_PrintString("Druk om te starten");
 1100              		.loc 1 96 0
 1101 0020 0021     		movs	r1, #0
 1102 0022 0846     		mov	r0, r1
 1103 0024 FFF7FEFF 		bl	LCD_Position
 1104              	.LVL141:
  97:main.c        ****     
 1105              		.loc 1 97 0
 1106 0028 1E48     		ldr	r0, .L90+16
 1107 002a FFF7FEFF 		bl	LCD_PrintString
 1108              	.LVL142:
  99:main.c        ****     MotorControl_WriteCompare2(pwmMotor2);
 1109              		.loc 1 99 0
 1110 002e 1E4C     		ldr	r4, .L90+20
 1111 0030 2078     		ldrb	r0, [r4]	@ zero_extendqisi2
 1112 0032 FFF7FEFF 		bl	MotorControl_WriteCompare1
 1113              	.LVL143:
 100:main.c        ****     ENA_Write(0);
 1114              		.loc 1 100 0
 1115 0036 6078     		ldrb	r0, [r4, #1]	@ zero_extendqisi2
 1116 0038 FFF7FEFF 		bl	MotorControl_WriteCompare2
 1117              	.LVL144:
 101:main.c        ****     ENB_Write(0);
 1118              		.loc 1 101 0
 1119 003c 0020     		movs	r0, #0
 1120 003e FFF7FEFF 		bl	ENA_Write
 1121              	.LVL145:
 102:main.c        ****     
 1122              		.loc 1 102 0
 1123 0042 0020     		movs	r0, #0
 1124 0044 FFF7FEFF 		bl	ENB_Write
 1125              	.LVL146:
 1126              	.L86:
 106:main.c        ****     {
 1127              		.loc 1 106 0 discriminator 1
 1128 0048 FFF7FEFF 		bl	SW1_Read
 1129              	.LVL147:
 1130 004c 0128     		cmp	r0, #1
 1131 004e FBD0     		beq	.L86
 111:main.c        ****     for(;;)
 1132              		.loc 1 111 0
 1133 0050 0120     		movs	r0, #1
 1134 0052 FFF7FEFF 		bl	LCD_WriteControl
 1135              	.LVL148:
 1136              	.L88:
 114:main.c        ****         {
 1137              		.loc 1 114 0
 1138 0056 FFF7FEFF 		bl	IsCharReady
 1139              	.LVL149:
 1140 005a 20B1     		cbz	r0, .L87
 116:main.c        ****             {
ARM GAS  C:\Users\BASILE~1\AppData\Local\Temp\ccjR6Z6O.s 			page 29


 1141              		.loc 1 116 0
 1142 005c FFF7FEFF 		bl	GetRxStr
 1143              	.LVL150:
 1144 0060 08B1     		cbz	r0, .L87
 118:main.c        ****             }
 1145              		.loc 1 118 0
 1146 0062 FFF7FEFF 		bl	ProcessCommandMsg
 1147              	.LVL151:
 1148              	.L87:
 124:main.c        ****         //selectUS_Write(selectUS);
 1149              		.loc 1 124 0
 1150 0066 104C     		ldr	r4, .L90+20
 1151 0068 0222     		movs	r2, #2
 1152 006a 0021     		movs	r1, #0
 1153 006c A078     		ldrb	r0, [r4, #2]	@ zero_extendqisi2
 1154 006e FFF7FEFF 		bl	telTot
 1155              	.LVL152:
 1156 0072 A070     		strb	r0, [r4, #2]
 152:main.c        ****         //print de binaire waarde van de infrarood sensoren op de lcd
 1157              		.loc 1 152 0
 1158 0074 6178     		ldrb	r1, [r4, #1]	@ zero_extendqisi2
 1159 0076 2078     		ldrb	r0, [r4]	@ zero_extendqisi2
 1160 0078 FFF7FEFF 		bl	printTextopLCD
 1161              	.LVL153:
 154:main.c        ****         
 1162              		.loc 1 154 0
 1163 007c 0121     		movs	r1, #1
 1164 007e 0B4B     		ldr	r3, .L90+24
 1165 0080 1878     		ldrb	r0, [r3]	@ zero_extendqisi2
 1166 0082 FFF7FEFF 		bl	printBINopLCD
 1167              	.LVL154:
 158:main.c        ****         MotorControl_WriteCompare2(pwmMotor2);
 1168              		.loc 1 158 0
 1169 0086 2078     		ldrb	r0, [r4]	@ zero_extendqisi2
 1170 0088 FFF7FEFF 		bl	MotorControl_WriteCompare1
 1171              	.LVL155:
 159:main.c        ****     }
 1172              		.loc 1 159 0
 1173 008c 6078     		ldrb	r0, [r4, #1]	@ zero_extendqisi2
 1174 008e FFF7FEFF 		bl	MotorControl_WriteCompare2
 1175              	.LVL156:
 160:main.c        **** }
 1176              		.loc 1 160 0
 1177 0092 E0E7     		b	.L88
 1178              	.L91:
 1179              		.align	2
 1180              	.L90:
 1181 0094 00000000 		.word	IRSensoren
 1182 0098 00000000 		.word	SwitchMotorEN
 1183 009c 00000000 		.word	MyRxInt
 1184 00a0 00000000 		.word	sendBleData
 1185 00a4 1C000000 		.word	.LC4
 1186 00a8 00000000 		.word	.LANCHOR2
 1187 00ac 00000000 		.word	IRWaarden
 1188              		.cfi_endproc
 1189              	.LFE67:
 1190              		.size	main, .-main
ARM GAS  C:\Users\BASILE~1\AppData\Local\Temp\ccjR6Z6O.s 			page 30


 1191              		.comm	strMsg1,64,4
 1192              		.comm	hexaDecBuffer,2,4
 1193              		.global	pwmMotor2
 1194              		.global	pwmMotor1
 1195              		.comm	avgUS3,10,4
 1196              		.comm	avgUS2,10,4
 1197              		.comm	avgUS1,10,4
 1198              		.comm	mediaan,2,2
 1199              		.global	selectUS
 1200              		.global	IRDrempel
 1201              		.comm	IRWaarden,1,1
 1202              		.comm	RB,20,4
 1203              		.section	.rodata
 1204              		.align	2
 1205              		.set	.LANCHOR0,. + 0
 1206              	.LC0:
 1207 0000 FFFF     		.short	-1
 1208 0002 FFFF     		.short	-1
 1209 0004 FFFF     		.short	-1
 1210 0006 FFFF     		.short	-1
 1211 0008 FFFF     		.short	-1
 1212              		.data
 1213              		.set	.LANCHOR1,. + 0
 1214              		.type	IRDrempel, %object
 1215              		.size	IRDrempel, 1
 1216              	IRDrempel:
 1217 0000 64       		.byte	100
 1218              		.section	.rodata.str1.4,"aMS",%progbits,1
 1219              		.align	2
 1220              	.LC1:
 1221 0000 73656E73 		.ascii	"sensor: \000"
 1221      6F723A20 
 1221      00
 1222 0009 000000   		.space	3
 1223              	.LC2:
 1224 000c 492F2573 		.ascii	"I/%s/\015\000"
 1224      2F0D00
 1225 0013 00       		.space	1
 1226              	.LC3:
 1227 0014 542F2573 		.ascii	"T/%s/\015\000"
 1227      2F0D00
 1228 001b 00       		.space	1
 1229              	.LC4:
 1230 001c 4472756B 		.ascii	"Druk om te starten\000"
 1230      206F6D20 
 1230      74652073 
 1230      74617274 
 1230      656E00
 1231              		.bss
 1232              		.set	.LANCHOR2,. + 0
 1233              		.type	pwmMotor1, %object
 1234              		.size	pwmMotor1, 1
 1235              	pwmMotor1:
 1236 0000 00       		.space	1
 1237              		.type	pwmMotor2, %object
 1238              		.size	pwmMotor2, 1
 1239              	pwmMotor2:
ARM GAS  C:\Users\BASILE~1\AppData\Local\Temp\ccjR6Z6O.s 			page 31


 1240 0001 00       		.space	1
 1241              		.type	selectUS, %object
 1242              		.size	selectUS, 1
 1243              	selectUS:
 1244 0002 00       		.space	1
 1245              		.text
 1246              	.Letext0:
 1247              		.file 2 "c:\\program files (x86)\\cypress\\psoc creator\\4.2\\psoc creator\\import\\gnu\\arm\\5.4.
 1248              		.file 3 "c:\\program files (x86)\\cypress\\psoc creator\\4.2\\psoc creator\\import\\gnu\\arm\\5.4.
 1249              		.file 4 "Generated_Source\\PSoC5/cytypes.h"
 1250              		.file 5 "c:\\program files (x86)\\cypress\\psoc creator\\4.2\\psoc creator\\import\\gnu\\arm\\5.4.
 1251              		.file 6 "Generated_Source\\PSoC5/core_cm3.h"
 1252              		.file 7 "Generated_Source\\PSoC5/ADC_IR.h"
 1253              		.file 8 "Generated_Source\\PSoC5/LCD.h"
 1254              		.file 9 "Generated_Source\\PSoC5/MotorControl.h"
 1255              		.file 10 "Generated_Source\\PSoC5/TimerUS.h"
 1256              		.file 11 "Generated_Source\\PSoC5/BleVDAC.h"
 1257              		.file 12 "Generated_Source\\PSoC5/BleBuffer.h"
 1258              		.file 13 "Generated_Source\\PSoC5/BleUart.h"
 1259              		.file 14 "Generated_Source\\PSoC5/sendBleDataTimer.h"
 1260              		.file 15 "Generated_Source\\PSoC5/TriggerReg.h"
 1261              		.file 16 "Generated_Source\\PSoC5/CyLib.h"
 1262              		.file 17 "Generated_Source\\PSoC5/statusEcho.h"
 1263              		.file 18 "Generated_Source\\PSoC5/LED1.h"
 1264              		.file 19 "Generated_Source\\PSoC5/LED2.h"
 1265              		.file 20 "Generated_Source\\PSoC5/LED3.h"
 1266              		.file 21 "Generated_Source\\PSoC5/LED4.h"
 1267              		.file 22 "Generated_Source\\PSoC5/LED5.h"
 1268              		.file 23 "c:\\program files (x86)\\cypress\\psoc creator\\4.2\\psoc creator\\import\\gnu\\arm\\5.4
 1269              		.file 24 "c:\\program files (x86)\\cypress\\psoc creator\\4.2\\psoc creator\\import\\gnu\\arm\\5.4
 1270              		.file 25 "Generated_Source\\PSoC5/ENA.h"
 1271              		.file 26 "Generated_Source\\PSoC5/ENB.h"
 1272              		.file 27 "Generated_Source\\PSoC5/readIRSensors.h"
 1273              		.file 28 "Generated_Source\\PSoC5/EnMotorISR.h"
 1274              		.file 29 "Generated_Source\\PSoC5/BleRxISR.h"
 1275              		.file 30 "Generated_Source\\PSoC5/SendBleDataISR.h"
 1276              		.file 31 "Generated_Source\\PSoC5/SW1.h"
 1277              		.file 32 "./myUART.h"