ARM GAS  C:\Users\BASILE~1.BER\AppData\Local\Temp\ccCtg7HF.s 			page 1


   1              		.syntax unified
   2              		.cpu cortex-m3
   3              		.fpu softvfp
   4              		.eabi_attribute 20, 1
   5              		.eabi_attribute 21, 1
   6              		.eabi_attribute 23, 3
   7              		.eabi_attribute 24, 1
   8              		.eabi_attribute 25, 1
   9              		.eabi_attribute 26, 1
  10              		.eabi_attribute 30, 1
  11              		.eabi_attribute 34, 1
  12              		.eabi_attribute 18, 4
  13              		.thumb
  14              		.syntax unified
  15              		.file	"myUART.c"
  16              		.text
  17              	.Ltext0:
  18              		.cfi_sections	.debug_frame
  19              		.section	.text.MyRxInt,"ax",%progbits
  20              		.align	2
  21              		.global	MyRxInt
  22              		.thumb
  23              		.thumb_func
  24              		.type	MyRxInt, %function
  25              	MyRxInt:
  26              	.LFB63:
  27              		.file 1 "myUART.c"
   1:myUART.c      **** /* ==================================================
   2:myUART.c      ****  * Followed by project posted by 
   3:myUART.c      ****  * Bob Marlowe TxRx20
   4:myUART.c      ****  * http://www.cypress.com/?app=forum&id=2233&rID=63901
   5:myUART.c      **** 
   6:myUART.c      ****  * Provided As-is, without any warranties to perform
   7:myUART.c      ****  * under license terms CREATIVE COMMONS - SHARE ALIKE
   8:myUART.c      ****  *
   9:myUART.c      ****  * ==================================================
  10:myUART.c      **** */
  11:myUART.c      **** 
  12:myUART.c      ****     
  13:myUART.c      **** #include "myUART.h"
  14:myUART.c      **** 
  15:myUART.c      **** 
  16:myUART.c      **** // defines ==================================================================
  17:myUART.c      **** 
  18:myUART.c      **** 
  19:myUART.c      **** uint8	RxBuffer[RxBufferSize];     // Rx circular buffer to hold all incoming command
  20:myUART.c      **** uint8  *RxReadIndex	 = RxBuffer;    // pointer to position in RxBuffer to write incoming Rx bytes
  21:myUART.c      **** uint8  *RxWriteIndex = RxBuffer;    // pointer to position in RxBuffer to read and process bytes
  22:myUART.c      **** 
  23:myUART.c      **** 
  24:myUART.c      **** char   *RxStrIndex = RB.RxStr;      // pointer to command string buffer (processed messages)
  25:myUART.c      ****                                     // each Rx command consists of: <byte command><string value><CR
  26:myUART.c      **** 
  27:myUART.c      **** //===========================================================================
  28:myUART.c      **** 
  29:myUART.c      **** CY_ISR(MyRxInt) //interrupt on Rx byte received
  30:myUART.c      **** {   
ARM GAS  C:\Users\BASILE~1.BER\AppData\Local\Temp\ccCtg7HF.s 			page 2


  28              		.loc 1 30 0
  29              		.cfi_startproc
  30              		@ args = 0, pretend = 0, frame = 0
  31              		@ frame_needed = 0, uses_anonymous_args = 0
  32 0000 08B5     		push	{r3, lr}
  33              		.cfi_def_cfa_offset 8
  34              		.cfi_offset 3, -8
  35              		.cfi_offset 14, -4
  31:myUART.c      ****     //move all available characters from Rx queue to RxBuffer
  32:myUART.c      ****     while(BleUart_ReadRxStatus() & BleUart_RX_STS_FIFO_NOTEMPTY)
  36              		.loc 1 32 0
  37 0002 0EE0     		b	.L3
  38              	.L4:
  39              	.LBB2:
  33:myUART.c      **** 	{
  34:myUART.c      ****         char readData =  BleUart_ReadRxData();
  40              		.loc 1 34 0
  41 0004 FFF7FEFF 		bl	BleUart_ReadRxData
  42              	.LVL0:
  35:myUART.c      ****         
  36:myUART.c      **** 		*RxWriteIndex++ = readData;
  43              		.loc 1 36 0
  44 0008 094B     		ldr	r3, .L6
  45 000a 1A68     		ldr	r2, [r3]
  46 000c 511C     		adds	r1, r2, #1
  47 000e 1960     		str	r1, [r3]
  48 0010 1070     		strb	r0, [r2]
  37:myUART.c      **** 		if (RxWriteIndex >= RxBuffer + RxBufferSize) RxWriteIndex = RxBuffer;      
  49              		.loc 1 37 0
  50 0012 1A68     		ldr	r2, [r3]
  51 0014 074B     		ldr	r3, .L6+4
  52 0016 9A42     		cmp	r2, r3
  53 0018 03D3     		bcc	.L3
  54              		.loc 1 37 0 is_stmt 0 discriminator 1
  55 001a A3F18002 		sub	r2, r3, #128
  56 001e 044B     		ldr	r3, .L6
  57 0020 1A60     		str	r2, [r3]
  58              	.LVL1:
  59              	.L3:
  60              	.LBE2:
  32:myUART.c      **** 	{
  61              		.loc 1 32 0 is_stmt 1
  62 0022 FFF7FEFF 		bl	BleUart_ReadRxStatus
  63              	.LVL2:
  64 0026 10F0200F 		tst	r0, #32
  65 002a EBD1     		bne	.L4
  38:myUART.c      **** 	}   
  39:myUART.c      **** }
  66              		.loc 1 39 0
  67 002c 08BD     		pop	{r3, pc}
  68              	.L7:
  69 002e 00BF     		.align	2
  70              	.L6:
  71 0030 00000000 		.word	.LANCHOR0
  72 0034 80000000 		.word	RxBuffer+128
  73              		.cfi_endproc
  74              	.LFE63:
ARM GAS  C:\Users\BASILE~1.BER\AppData\Local\Temp\ccCtg7HF.s 			page 3


  75              		.size	MyRxInt, .-MyRxInt
  76              		.section	.text.IsCharReady,"ax",%progbits
  77              		.align	2
  78              		.global	IsCharReady
  79              		.thumb
  80              		.thumb_func
  81              		.type	IsCharReady, %function
  82              	IsCharReady:
  83              	.LFB64:
  40:myUART.c      **** 
  41:myUART.c      **** //===========================================================================
  42:myUART.c      **** uint8 IsCharReady(void) 
  43:myUART.c      **** {
  84              		.loc 1 43 0
  85              		.cfi_startproc
  86              		@ args = 0, pretend = 0, frame = 0
  87              		@ frame_needed = 0, uses_anonymous_args = 0
  88              		@ link register save eliminated.
  44:myUART.c      **** 	return !(RxWriteIndex == RxReadIndex);
  89              		.loc 1 44 0
  90 0000 034B     		ldr	r3, .L9
  91 0002 1868     		ldr	r0, [r3]
  92 0004 5B68     		ldr	r3, [r3, #4]
  45:myUART.c      **** }
  93              		.loc 1 45 0
  94 0006 C01A     		subs	r0, r0, r3
  95 0008 18BF     		it	ne
  96 000a 0120     		movne	r0, #1
  97 000c 7047     		bx	lr
  98              	.L10:
  99 000e 00BF     		.align	2
 100              	.L9:
 101 0010 00000000 		.word	.LANCHOR0
 102              		.cfi_endproc
 103              	.LFE64:
 104              		.size	IsCharReady, .-IsCharReady
 105              		.section	.text.GetRxStr,"ax",%progbits
 106              		.align	2
 107              		.global	GetRxStr
 108              		.thumb
 109              		.thumb_func
 110              		.type	GetRxStr, %function
 111              	GetRxStr:
 112              	.LFB65:
  46:myUART.c      **** 
  47:myUART.c      **** //===========================================================================
  48:myUART.c      **** 
  49:myUART.c      **** uint8 GetRxStr(void)
  50:myUART.c      **** {
 113              		.loc 1 50 0
 114              		.cfi_startproc
 115              		@ args = 0, pretend = 0, frame = 0
 116              		@ frame_needed = 0, uses_anonymous_args = 0
 117              		@ link register save eliminated.
 118              	.LVL3:
  51:myUART.c      ****     uint8 RxStr_flag = 0;
  52:myUART.c      ****     static uint8 Ch;//static?
ARM GAS  C:\Users\BASILE~1.BER\AppData\Local\Temp\ccCtg7HF.s 			page 4


  53:myUART.c      ****    
  54:myUART.c      **** 	Ch = *RxReadIndex++;       //read next char in buffer
 119              		.loc 1 54 0
 120 0000 1049     		ldr	r1, .L17
 121 0002 4B68     		ldr	r3, [r1, #4]
 122 0004 5A1C     		adds	r2, r3, #1
 123 0006 4A60     		str	r2, [r1, #4]
 124 0008 1B78     		ldrb	r3, [r3]	@ zero_extendqisi2
  55:myUART.c      ****     if (RxReadIndex >= RxBuffer + RxBufferSize) RxReadIndex = RxBuffer;
 125              		.loc 1 55 0
 126 000a 0F49     		ldr	r1, .L17+4
 127 000c 8A42     		cmp	r2, r1
 128 000e 02D3     		bcc	.L12
 129              		.loc 1 55 0 is_stmt 0 discriminator 1
 130 0010 8039     		subs	r1, r1, #128
 131 0012 0C4A     		ldr	r2, .L17
 132 0014 5160     		str	r1, [r2, #4]
 133              	.L12:
  56:myUART.c      ****             
  57:myUART.c      ****     //if (Ch == EOM_char)
  58:myUART.c      ****     if ( (Ch == EOM_CR) || (Ch == EOM_LF) ) //any standard terminator
 134              		.loc 1 58 0 is_stmt 1
 135 0016 0D2B     		cmp	r3, #13
 136 0018 01D0     		beq	.L13
 137              		.loc 1 58 0 is_stmt 0 discriminator 1
 138 001a 0A2B     		cmp	r3, #10
 139 001c 09D1     		bne	.L14
 140              	.L13:
  59:myUART.c      ****     {
  60:myUART.c      ****         *RxStrIndex = 0;        //terminate string excluding EOM_char
 141              		.loc 1 60 0 is_stmt 1
 142 001e 094A     		ldr	r2, .L17
 143 0020 9368     		ldr	r3, [r2, #8]
 144 0022 0021     		movs	r1, #0
 145 0024 1970     		strb	r1, [r3]
  61:myUART.c      ****         RxStrIndex = RB.RxStr;  //reset pointer
 146              		.loc 1 61 0
 147 0026 094B     		ldr	r3, .L17+8
 148 0028 9360     		str	r3, [r2, #8]
  62:myUART.c      ****         if (strlen(RB.RxStr) > 0)//non-empty message received
 149              		.loc 1 62 0
 150 002a 1B78     		ldrb	r3, [r3]	@ zero_extendqisi2
 151 002c 43B9     		cbnz	r3, .L16
  51:myUART.c      ****     static uint8 Ch;//static?
 152              		.loc 1 51 0
 153 002e 0846     		mov	r0, r1
 154 0030 7047     		bx	lr
 155              	.L14:
  63:myUART.c      ****         {
  64:myUART.c      ****             RxStr_flag  = 1;    //set flag to process message
  65:myUART.c      ****         }   
  66:myUART.c      ****     }
  67:myUART.c      ****     else                        //string body char received
  68:myUART.c      ****     {
  69:myUART.c      ****         *RxStrIndex++ = Ch;     //build command message   
 156              		.loc 1 69 0
 157 0032 0449     		ldr	r1, .L17
ARM GAS  C:\Users\BASILE~1.BER\AppData\Local\Temp\ccCtg7HF.s 			page 5


 158 0034 8A68     		ldr	r2, [r1, #8]
 159 0036 501C     		adds	r0, r2, #1
 160 0038 8860     		str	r0, [r1, #8]
 161 003a 1370     		strb	r3, [r2]
  51:myUART.c      ****     static uint8 Ch;//static?
 162              		.loc 1 51 0
 163 003c 0020     		movs	r0, #0
 164 003e 7047     		bx	lr
 165              	.L16:
  64:myUART.c      ****         }   
 166              		.loc 1 64 0
 167 0040 0120     		movs	r0, #1
 168              	.LVL4:
  70:myUART.c      ****         //todo: problem if first char is empty space
  71:myUART.c      ****     }   
  72:myUART.c      **** 
  73:myUART.c      ****     return RxStr_flag;        
  74:myUART.c      **** }
 169              		.loc 1 74 0
 170 0042 7047     		bx	lr
 171              	.L18:
 172              		.align	2
 173              	.L17:
 174 0044 00000000 		.word	.LANCHOR0
 175 0048 80000000 		.word	RxBuffer+128
 176 004c 00000000 		.word	RB
 177              		.cfi_endproc
 178              	.LFE65:
 179              		.size	GetRxStr, .-GetRxStr
 180              		.global	RxStrIndex
 181              		.global	RxWriteIndex
 182              		.global	RxReadIndex
 183              		.comm	RxBuffer,128,4
 184              		.comm	RB,20,4
 185              		.data
 186              		.align	2
 187              		.set	.LANCHOR0,. + 0
 188              		.type	RxWriteIndex, %object
 189              		.size	RxWriteIndex, 4
 190              	RxWriteIndex:
 191 0000 00000000 		.word	RxBuffer
 192              		.type	RxReadIndex, %object
 193              		.size	RxReadIndex, 4
 194              	RxReadIndex:
 195 0004 00000000 		.word	RxBuffer
 196              		.type	RxStrIndex, %object
 197              		.size	RxStrIndex, 4
 198              	RxStrIndex:
 199 0008 00000000 		.word	RB
 200              		.text
 201              	.Letext0:
 202              		.file 2 "c:\\program files (x86)\\cypress\\psoc creator\\4.2\\psoc creator\\import\\gnu\\arm\\5.4.
 203              		.file 3 "c:\\program files (x86)\\cypress\\psoc creator\\4.2\\psoc creator\\import\\gnu\\arm\\5.4.
 204              		.file 4 "Generated_Source\\PSoC5/cytypes.h"
 205              		.file 5 "Generated_Source\\PSoC5/core_cm3.h"
 206              		.file 6 "Generated_Source\\PSoC5/BleUart.h"
 207              		.file 7 "myUART.h"
ARM GAS  C:\Users\BASILE~1.BER\AppData\Local\Temp\ccCtg7HF.s 			page 6

