ARM GAS  C:\Users\BASILE~1\AppData\Local\Temp\cceArPXg.s 			page 1


   1              		.syntax unified
   2              		.cpu cortex-m3
   3              		.fpu softvfp
   4              		.eabi_attribute 20, 1
   5              		.eabi_attribute 21, 1
   6              		.eabi_attribute 23, 3
   7              		.eabi_attribute 24, 1
   8              		.eabi_attribute 25, 1
   9              		.eabi_attribute 26, 1
  10              		.eabi_attribute 30, 1
  11              		.eabi_attribute 34, 1
  12              		.eabi_attribute 18, 4
  13              		.thumb
  14              		.syntax unified
  15              		.file	"RaceLogica.c"
  16              		.text
  17              	.Ltext0:
  18              		.cfi_sections	.debug_frame
  19              		.section	.text.stuurMotorenBij,"ax",%progbits
  20              		.align	2
  21              		.global	stuurMotorenBij
  22              		.thumb
  23              		.thumb_func
  24              		.type	stuurMotorenBij, %function
  25              	stuurMotorenBij:
  26              	.LFB64:
  27              		.file 1 "RaceLogica.c"
   1:RaceLogica.c  **** /* ========================================
   2:RaceLogica.c  ****  *
   3:RaceLogica.c  ****  * Copyright YOUR COMPANY, THE YEAR
   4:RaceLogica.c  ****  * All Rights Reserved
   5:RaceLogica.c  ****  * UNPUBLISHED, LICENSED SOFTWARE.
   6:RaceLogica.c  ****  *
   7:RaceLogica.c  ****  * CONFIDENTIAL AND PROPRIETARY INFORMATION
   8:RaceLogica.c  ****  * WHICH IS THE PROPERTY OF your company.
   9:RaceLogica.c  ****  *
  10:RaceLogica.c  ****  * ========================================
  11:RaceLogica.c  **** */
  12:RaceLogica.c  **** #include "projectMain.h"
  13:RaceLogica.c  **** #include "project.h"
  14:RaceLogica.c  **** 
  15:RaceLogica.c  **** uint8 IRsensorGewicht[] = {170,200,230,255  ,255,230,200,170};
  16:RaceLogica.c  **** uint8 IRDigitaleWaarden[8];
  17:RaceLogica.c  **** 
  18:RaceLogica.c  **** uint8 TweedeLijnGedetecteerd = 0;
  19:RaceLogica.c  **** 
  20:RaceLogica.c  **** uint8 Data;
  21:RaceLogica.c  **** 
  22:RaceLogica.c  **** void AnalyseerData(uint8 data)
  23:RaceLogica.c  **** {
  24:RaceLogica.c  ****     Data = data;
  25:RaceLogica.c  ****     PlaatsIRWaardenInArray();
  26:RaceLogica.c  ****     stuurMotorenBij();
  27:RaceLogica.c  **** }
  28:RaceLogica.c  **** 
  29:RaceLogica.c  **** void stuurMotorenBij(void)
  30:RaceLogica.c  **** { 
ARM GAS  C:\Users\BASILE~1\AppData\Local\Temp\cceArPXg.s 			page 2


  28              		.loc 1 30 0
  29              		.cfi_startproc
  30              		@ args = 0, pretend = 0, frame = 0
  31              		@ frame_needed = 0, uses_anonymous_args = 0
  32              		@ link register save eliminated.
  33              	.LVL0:
  34              	.LBB2:
  31:RaceLogica.c  ****     for(int i = 0; i < 4; i++)
  35              		.loc 1 31 0
  36 0000 0023     		movs	r3, #0
  37 0002 09E0     		b	.L2
  38              	.LVL1:
  39              	.L5:
  32:RaceLogica.c  **** 	{
  33:RaceLogica.c  ****         if (IRDigitaleWaarden[i] == 1)
  40              		.loc 1 33 0
  41 0004 0D4A     		ldr	r2, .L10
  42 0006 D25C     		ldrb	r2, [r2, r3]	@ zero_extendqisi2
  43 0008 012A     		cmp	r2, #1
  44 000a 04D1     		bne	.L3
  34:RaceLogica.c  ****         {
  35:RaceLogica.c  ****             pwmMotor1 = IRsensorGewicht[i];
  45              		.loc 1 35 0
  46 000c 0C4A     		ldr	r2, .L10+4
  47 000e D25C     		ldrb	r2, [r2, r3]	@ zero_extendqisi2
  48 0010 0C4B     		ldr	r3, .L10+8
  49              	.LVL2:
  50 0012 1A70     		strb	r2, [r3]
  36:RaceLogica.c  ****             break;
  51              		.loc 1 36 0
  52 0014 02E0     		b	.L4
  53              	.LVL3:
  54              	.L3:
  31:RaceLogica.c  **** 	{
  55              		.loc 1 31 0 discriminator 2
  56 0016 0133     		adds	r3, r3, #1
  57              	.LVL4:
  58              	.L2:
  31:RaceLogica.c  **** 	{
  59              		.loc 1 31 0 is_stmt 0 discriminator 1
  60 0018 032B     		cmp	r3, #3
  61 001a F3DD     		ble	.L5
  62              	.LVL5:
  63              	.L4:
  64              	.LBE2:
  65              	.LBB3:
  37:RaceLogica.c  ****         }
  38:RaceLogica.c  ****     }
  39:RaceLogica.c  ****     for(int i = 7; i > 3; i--)
  66              		.loc 1 39 0 is_stmt 1
  67 001c 0723     		movs	r3, #7
  68 001e 09E0     		b	.L6
  69              	.LVL6:
  70              	.L9:
  40:RaceLogica.c  **** 	{
  41:RaceLogica.c  ****         if (IRDigitaleWaarden[i] == 1)
  71              		.loc 1 41 0
ARM GAS  C:\Users\BASILE~1\AppData\Local\Temp\cceArPXg.s 			page 3


  72 0020 064A     		ldr	r2, .L10
  73 0022 D25C     		ldrb	r2, [r2, r3]	@ zero_extendqisi2
  74 0024 012A     		cmp	r2, #1
  75 0026 04D1     		bne	.L7
  42:RaceLogica.c  ****         {
  43:RaceLogica.c  ****             pwmMotor2 = IRsensorGewicht[i];
  76              		.loc 1 43 0
  77 0028 054A     		ldr	r2, .L10+4
  78 002a D25C     		ldrb	r2, [r2, r3]	@ zero_extendqisi2
  79 002c 064B     		ldr	r3, .L10+12
  80              	.LVL7:
  81 002e 1A70     		strb	r2, [r3]
  44:RaceLogica.c  ****             break;
  82              		.loc 1 44 0
  83 0030 7047     		bx	lr
  84              	.LVL8:
  85              	.L7:
  39:RaceLogica.c  **** 	{
  86              		.loc 1 39 0 discriminator 2
  87 0032 013B     		subs	r3, r3, #1
  88              	.LVL9:
  89              	.L6:
  39:RaceLogica.c  **** 	{
  90              		.loc 1 39 0 is_stmt 0 discriminator 1
  91 0034 032B     		cmp	r3, #3
  92 0036 F3DC     		bgt	.L9
  93 0038 7047     		bx	lr
  94              	.L11:
  95 003a 00BF     		.align	2
  96              	.L10:
  97 003c 00000000 		.word	IRDigitaleWaarden
  98 0040 00000000 		.word	.LANCHOR0
  99 0044 00000000 		.word	pwmMotor1
 100 0048 00000000 		.word	pwmMotor2
 101              	.LBE3:
 102              		.cfi_endproc
 103              	.LFE64:
 104              		.size	stuurMotorenBij, .-stuurMotorenBij
 105              		.section	.text.PlaatsIRWaardenInArray,"ax",%progbits
 106              		.align	2
 107              		.global	PlaatsIRWaardenInArray
 108              		.thumb
 109              		.thumb_func
 110              		.type	PlaatsIRWaardenInArray, %function
 111              	PlaatsIRWaardenInArray:
 112              	.LFB65:
  45:RaceLogica.c  ****         }
  46:RaceLogica.c  ****     }
  47:RaceLogica.c  ****     
  48:RaceLogica.c  **** }
  49:RaceLogica.c  **** 
  50:RaceLogica.c  **** void PlaatsIRWaardenInArray(void)
  51:RaceLogica.c  **** {
 113              		.loc 1 51 0 is_stmt 1
 114              		.cfi_startproc
 115              		@ args = 0, pretend = 0, frame = 0
 116              		@ frame_needed = 0, uses_anonymous_args = 0
ARM GAS  C:\Users\BASILE~1\AppData\Local\Temp\cceArPXg.s 			page 4


 117 0000 10B5     		push	{r4, lr}
 118              		.cfi_def_cfa_offset 8
 119              		.cfi_offset 4, -8
 120              		.cfi_offset 14, -4
 121              	.LVL10:
 122              	.LBB4:
  52:RaceLogica.c  ****     for(int i = 0; i < 8; i++)
 123              		.loc 1 52 0
 124 0002 0024     		movs	r4, #0
 125 0004 11E0     		b	.L13
 126              	.LVL11:
 127              	.L16:
 128              	.LBB5:
  53:RaceLogica.c  **** 	{
  54:RaceLogica.c  **** 		uint8 tmpWaarde =  exponent(2,i);
 129              		.loc 1 54 0
 130 0006 2146     		mov	r1, r4
 131 0008 0220     		movs	r0, #2
 132 000a FFF7FEFF 		bl	exponent
 133              	.LVL12:
 134 000e C0B2     		uxtb	r0, r0
 135              	.LVL13:
  55:RaceLogica.c  **** 		if ((Data & tmpWaarde) == tmpWaarde)
 136              		.loc 1 55 0
 137 0010 074B     		ldr	r3, .L18
 138 0012 1B78     		ldrb	r3, [r3]	@ zero_extendqisi2
 139 0014 30EA0303 		bics	r3, r0, r3
 140 0018 03D1     		bne	.L14
  56:RaceLogica.c  **** 		{
  57:RaceLogica.c  **** 			IRDigitaleWaarden[i]= 1;
 141              		.loc 1 57 0
 142 001a 0122     		movs	r2, #1
 143 001c 054B     		ldr	r3, .L18+4
 144 001e 1A55     		strb	r2, [r3, r4]
 145 0020 02E0     		b	.L15
 146              	.L14:
  58:RaceLogica.c  **** 		}
  59:RaceLogica.c  **** 			else 
  60:RaceLogica.c  **** 		{
  61:RaceLogica.c  **** 			IRDigitaleWaarden[i]= 0;
 147              		.loc 1 61 0
 148 0022 0022     		movs	r2, #0
 149 0024 034B     		ldr	r3, .L18+4
 150 0026 1A55     		strb	r2, [r3, r4]
 151              	.L15:
 152              	.LBE5:
  52:RaceLogica.c  **** 	{
 153              		.loc 1 52 0 discriminator 2
 154 0028 0134     		adds	r4, r4, #1
 155              	.LVL14:
 156              	.L13:
  52:RaceLogica.c  **** 	{
 157              		.loc 1 52 0 is_stmt 0 discriminator 1
 158 002a 072C     		cmp	r4, #7
 159 002c EBDD     		ble	.L16
 160              	.LBE4:
  62:RaceLogica.c  **** 		}  
ARM GAS  C:\Users\BASILE~1\AppData\Local\Temp\cceArPXg.s 			page 5


  63:RaceLogica.c  **** 	 }  
  64:RaceLogica.c  **** }
 161              		.loc 1 64 0 is_stmt 1
 162 002e 10BD     		pop	{r4, pc}
 163              	.LVL15:
 164              	.L19:
 165              		.align	2
 166              	.L18:
 167 0030 00000000 		.word	Data
 168 0034 00000000 		.word	IRDigitaleWaarden
 169              		.cfi_endproc
 170              	.LFE65:
 171              		.size	PlaatsIRWaardenInArray, .-PlaatsIRWaardenInArray
 172              		.section	.text.AnalyseerData,"ax",%progbits
 173              		.align	2
 174              		.global	AnalyseerData
 175              		.thumb
 176              		.thumb_func
 177              		.type	AnalyseerData, %function
 178              	AnalyseerData:
 179              	.LFB63:
  23:RaceLogica.c  ****     Data = data;
 180              		.loc 1 23 0
 181              		.cfi_startproc
 182              		@ args = 0, pretend = 0, frame = 0
 183              		@ frame_needed = 0, uses_anonymous_args = 0
 184              	.LVL16:
 185 0000 08B5     		push	{r3, lr}
 186              		.cfi_def_cfa_offset 8
 187              		.cfi_offset 3, -8
 188              		.cfi_offset 14, -4
  24:RaceLogica.c  ****     PlaatsIRWaardenInArray();
 189              		.loc 1 24 0
 190 0002 034B     		ldr	r3, .L22
 191 0004 1870     		strb	r0, [r3]
  25:RaceLogica.c  ****     stuurMotorenBij();
 192              		.loc 1 25 0
 193 0006 FFF7FEFF 		bl	PlaatsIRWaardenInArray
 194              	.LVL17:
  26:RaceLogica.c  **** }
 195              		.loc 1 26 0
 196 000a FFF7FEFF 		bl	stuurMotorenBij
 197              	.LVL18:
 198 000e 08BD     		pop	{r3, pc}
 199              	.L23:
 200              		.align	2
 201              	.L22:
 202 0010 00000000 		.word	Data
 203              		.cfi_endproc
 204              	.LFE63:
 205              		.size	AnalyseerData, .-AnalyseerData
 206              		.comm	Data,1,1
 207              		.global	TweedeLijnGedetecteerd
 208              		.comm	IRDigitaleWaarden,8,4
 209              		.global	IRsensorGewicht
 210              		.comm	avgUS3,10,4
 211              		.comm	avgUS2,10,4
ARM GAS  C:\Users\BASILE~1\AppData\Local\Temp\cceArPXg.s 			page 6


 212              		.comm	avgUS1,10,4
 213              		.comm	selectUS,1,1
 214              		.comm	mediaan,2,2
 215              		.comm	IRDrempel,1,1
 216              		.comm	IRWaarden,1,1
 217              		.comm	pwmMotor2,1,1
 218              		.comm	pwmMotor1,1,1
 219              		.comm	strMsg1,64,4
 220              		.comm	hexaDecBuffer,2,4
 221              		.data
 222              		.align	2
 223              		.set	.LANCHOR0,. + 0
 224              		.type	IRsensorGewicht, %object
 225              		.size	IRsensorGewicht, 8
 226              	IRsensorGewicht:
 227 0000 AA       		.byte	-86
 228 0001 C8       		.byte	-56
 229 0002 E6       		.byte	-26
 230 0003 FF       		.byte	-1
 231 0004 FF       		.byte	-1
 232 0005 E6       		.byte	-26
 233 0006 C8       		.byte	-56
 234 0007 AA       		.byte	-86
 235              		.bss
 236              		.type	TweedeLijnGedetecteerd, %object
 237              		.size	TweedeLijnGedetecteerd, 1
 238              	TweedeLijnGedetecteerd:
 239 0000 00       		.space	1
 240              		.text
 241              	.Letext0:
 242              		.file 2 "c:\\program files (x86)\\cypress\\psoc creator\\4.2\\psoc creator\\import\\gnu\\arm\\5.4.
 243              		.file 3 "c:\\program files (x86)\\cypress\\psoc creator\\4.2\\psoc creator\\import\\gnu\\arm\\5.4.
 244              		.file 4 "Generated_Source\\PSoC5/cytypes.h"
 245              		.file 5 "projectMain.h"
 246              		.file 6 "Generated_Source\\PSoC5/core_cm3.h"