ARM GAS  C:\Users\Hugo\AppData\Local\Temp\ccLC25Ce.s 			page 1


   1              		.syntax unified
   2              		.cpu cortex-m3
   3              		.fpu softvfp
   4              		.eabi_attribute 20, 1
   5              		.eabi_attribute 21, 1
   6              		.eabi_attribute 23, 3
   7              		.eabi_attribute 24, 1
   8              		.eabi_attribute 25, 1
   9              		.eabi_attribute 26, 1
  10              		.eabi_attribute 30, 1
  11              		.eabi_attribute 34, 1
  12              		.eabi_attribute 18, 4
  13              		.thumb
  14              		.syntax unified
  15              		.file	"Driving.c"
  16              		.text
  17              	.Ltext0:
  18              		.cfi_sections	.debug_frame
  19              		.section	.text.Drive,"ax",%progbits
  20              		.align	2
  21              		.global	Drive
  22              		.thumb
  23              		.thumb_func
  24              		.type	Drive, %function
  25              	Drive:
  26              	.LFB63:
  27              		.file 1 "Driving.c"
   1:Driving.c     **** /* ========================================
   2:Driving.c     ****  *
   3:Driving.c     ****  * Copyright YOUR COMPANY, THE YEAR
   4:Driving.c     ****  * All Rights Reserved
   5:Driving.c     ****  * UNPUBLISHED, LICENSED SOFTWARE.
   6:Driving.c     ****  *
   7:Driving.c     ****  * CONFIDENTIAL AND PROPRIETARY INFORMATION
   8:Driving.c     ****  * WHICH IS THE PROPERTY OF your company.
   9:Driving.c     ****  *
  10:Driving.c     ****  * ========================================
  11:Driving.c     **** */
  12:Driving.c     **** #include "Driving.h"
  13:Driving.c     **** 
  14:Driving.c     **** uint8_t motor_Direction_High[3] = Motor_Direction_High;    
  15:Driving.c     **** uint8_t motor_Direction_Low[3] = Motor_Direction_Low;    
  16:Driving.c     **** uint8_t motor_Difference[3] = Motor_Difference;    
  17:Driving.c     **** 
  18:Driving.c     **** 
  19:Driving.c     **** int16 direction=0;
  20:Driving.c     **** 
  21:Driving.c     **** uint8_t path =0;
  22:Driving.c     **** _Bool holdL;
  23:Driving.c     **** _Bool holdR;
  24:Driving.c     **** 
  25:Driving.c     **** 
  26:Driving.c     ****     uint8 ToLeft=0;
  27:Driving.c     ****     uint8 ToRight=0;   
  28:Driving.c     ****     void Drive(uint8_t ir[8])
  29:Driving.c     **** { 
  28              		.loc 1 29 0
ARM GAS  C:\Users\Hugo\AppData\Local\Temp\ccLC25Ce.s 			page 2


  29              		.cfi_startproc
  30              		@ args = 0, pretend = 0, frame = 0
  31              		@ frame_needed = 0, uses_anonymous_args = 0
  32              	.LVL0:
  33 0000 10B5     		push	{r4, lr}
  34              		.cfi_def_cfa_offset 8
  35              		.cfi_offset 4, -8
  36              		.cfi_offset 14, -4
  30:Driving.c     ****      ToLeft=0;
  37              		.loc 1 30 0
  38 0002 314B     		ldr	r3, .L14
  39 0004 0022     		movs	r2, #0
  40 0006 1A70     		strb	r2, [r3]
  31:Driving.c     ****      ToRight=0;   
  41              		.loc 1 31 0
  42 0008 5A70     		strb	r2, [r3, #1]
  43              	.LVL1:
  44              	.LBB2:
  32:Driving.c     ****     //path =0;
  33:Driving.c     ****     for (uint8_t i = 1; i < 4; i++){
  45              		.loc 1 33 0
  46 000a 0123     		movs	r3, #1
  47 000c 21E0     		b	.L2
  48              	.LVL2:
  49              	.L5:
  34:Driving.c     ****         if(ir[i]>ir_compare)    {ToLeft+=(16>>(i-1));      holdR=0; holdL =0;   /*path=path + (128>
  50              		.loc 1 34 0
  51 000e C25C     		ldrb	r2, [r0, r3]	@ zero_extendqisi2
  52 0010 602A     		cmp	r2, #96
  53 0012 0BD9     		bls	.L3
  54              		.loc 1 34 0 is_stmt 0 discriminator 1
  55 0014 591E     		subs	r1, r3, #1
  56 0016 1022     		movs	r2, #16
  57 0018 0A41     		asrs	r2, r2, r1
  58 001a 2B49     		ldr	r1, .L14
  59 001c 0C78     		ldrb	r4, [r1]	@ zero_extendqisi2
  60 001e 2244     		add	r2, r2, r4
  61 0020 0A70     		strb	r2, [r1]
  62 0022 0022     		movs	r2, #0
  63 0024 2949     		ldr	r1, .L14+4
  64 0026 0A70     		strb	r2, [r1]
  65 0028 2949     		ldr	r1, .L14+8
  66 002a 0A70     		strb	r2, [r1]
  67              	.L3:
  35:Driving.c     ****         if(ir[7-i]>ir_compare)  {ToRight+=(16>>(i-1));     holdL=0; holdR =0;   /*path=path + (1<<i
  68              		.loc 1 35 0 is_stmt 1
  69 002c C3F10702 		rsb	r2, r3, #7
  70 0030 825C     		ldrb	r2, [r0, r2]	@ zero_extendqisi2
  71 0032 602A     		cmp	r2, #96
  72 0034 0BD9     		bls	.L4
  73              		.loc 1 35 0 is_stmt 0 discriminator 1
  74 0036 591E     		subs	r1, r3, #1
  75 0038 1022     		movs	r2, #16
  76 003a 0A41     		asrs	r2, r2, r1
  77 003c 2249     		ldr	r1, .L14
  78 003e 4C78     		ldrb	r4, [r1, #1]	@ zero_extendqisi2
  79 0040 2244     		add	r2, r2, r4
ARM GAS  C:\Users\Hugo\AppData\Local\Temp\ccLC25Ce.s 			page 3


  80 0042 4A70     		strb	r2, [r1, #1]
  81 0044 0022     		movs	r2, #0
  82 0046 2249     		ldr	r1, .L14+8
  83 0048 0A70     		strb	r2, [r1]
  84 004a 2049     		ldr	r1, .L14+4
  85 004c 0A70     		strb	r2, [r1]
  86              	.L4:
  33:Driving.c     ****         if(ir[i]>ir_compare)    {ToLeft+=(16>>(i-1));      holdR=0; holdL =0;   /*path=path + (128>
  87              		.loc 1 33 0 is_stmt 1 discriminator 2
  88 004e 0133     		adds	r3, r3, #1
  89              	.LVL3:
  90 0050 DBB2     		uxtb	r3, r3
  91              	.LVL4:
  92              	.L2:
  33:Driving.c     ****         if(ir[i]>ir_compare)    {ToLeft+=(16>>(i-1));      holdR=0; holdL =0;   /*path=path + (128>
  93              		.loc 1 33 0 is_stmt 0 discriminator 1
  94 0052 032B     		cmp	r3, #3
  95 0054 DBD9     		bls	.L5
  96              	.LBE2:
  36:Driving.c     ****     }
  37:Driving.c     ****     if(ir[0]>ir_compare)    {holdL =1;  /*path=path + (128);*/}   
  97              		.loc 1 37 0 is_stmt 1
  98 0056 0378     		ldrb	r3, [r0]	@ zero_extendqisi2
  99              	.LVL5:
 100 0058 602B     		cmp	r3, #96
 101 005a 02D9     		bls	.L6
 102              		.loc 1 37 0 is_stmt 0 discriminator 1
 103 005c 0122     		movs	r2, #1
 104 005e 1C4B     		ldr	r3, .L14+8
 105 0060 1A70     		strb	r2, [r3]
 106              	.L6:
  38:Driving.c     ****     if(ir[7]>ir_compare)    {holdR =1;  /*path=path + (1);*/} 
 107              		.loc 1 38 0 is_stmt 1
 108 0062 C379     		ldrb	r3, [r0, #7]	@ zero_extendqisi2
 109 0064 602B     		cmp	r3, #96
 110 0066 02D9     		bls	.L7
 111              		.loc 1 38 0 is_stmt 0 discriminator 1
 112 0068 0122     		movs	r2, #1
 113 006a 184B     		ldr	r3, .L14+4
 114 006c 1A70     		strb	r2, [r3]
 115              	.L7:
  39:Driving.c     ****     if(holdL==1)       ToLeft=Motor_Main;
 116              		.loc 1 39 0 is_stmt 1
 117 006e 184B     		ldr	r3, .L14+8
 118 0070 1B78     		ldrb	r3, [r3]	@ zero_extendqisi2
 119 0072 13B1     		cbz	r3, .L8
 120              		.loc 1 39 0 is_stmt 0 discriminator 1
 121 0074 1F22     		movs	r2, #31
 122 0076 144B     		ldr	r3, .L14
 123 0078 1A70     		strb	r2, [r3]
 124              	.L8:
  40:Driving.c     ****     if(holdR==1)       ToRight=Motor_Main;
 125              		.loc 1 40 0 is_stmt 1
 126 007a 144B     		ldr	r3, .L14+4
 127 007c 1B78     		ldrb	r3, [r3]	@ zero_extendqisi2
 128 007e 13B1     		cbz	r3, .L9
 129              		.loc 1 40 0 is_stmt 0 discriminator 1
ARM GAS  C:\Users\Hugo\AppData\Local\Temp\ccLC25Ce.s 			page 4


 130 0080 1F22     		movs	r2, #31
 131 0082 114B     		ldr	r3, .L14
 132 0084 5A70     		strb	r2, [r3, #1]
 133              	.L9:
  41:Driving.c     ****     
  42:Driving.c     ****     direction = ToLeft;    
 134              		.loc 1 42 0 is_stmt 1
 135 0086 104A     		ldr	r2, .L14
 136 0088 1378     		ldrb	r3, [r2]	@ zero_extendqisi2
  43:Driving.c     ****     direction -= ToRight;    
 137              		.loc 1 43 0
 138 008a 5178     		ldrb	r1, [r2, #1]	@ zero_extendqisi2
 139 008c 5B1A     		subs	r3, r3, r1
 140 008e 5380     		strh	r3, [r2, #2]	@ movhi
  44:Driving.c     ****     
  45:Driving.c     ****     if(direction>0)     {ToLeft = Motor_Main; ToRight = Motor_Main - direction;}
 141              		.loc 1 45 0
 142 0090 002B     		cmp	r3, #0
 143 0092 03DD     		ble	.L10
 144              		.loc 1 45 0 is_stmt 0 discriminator 1
 145 0094 1F21     		movs	r1, #31
 146 0096 1170     		strb	r1, [r2]
 147 0098 C91A     		subs	r1, r1, r3
 148 009a 5170     		strb	r1, [r2, #1]
 149              	.L10:
  46:Driving.c     ****     if(direction==0)    {ToLeft = Motor_Main>>1; ToRight = Motor_Main>>2;}
 150              		.loc 1 46 0 is_stmt 1
 151 009c 23B9     		cbnz	r3, .L11
 152              		.loc 1 46 0 is_stmt 0 discriminator 1
 153 009e 0A4A     		ldr	r2, .L14
 154 00a0 0F21     		movs	r1, #15
 155 00a2 1170     		strb	r1, [r2]
 156 00a4 0721     		movs	r1, #7
 157 00a6 5170     		strb	r1, [r2, #1]
 158              	.L11:
  47:Driving.c     ****     if(direction<0)     {ToLeft = Motor_Main+ direction; ToRight = Motor_Main;}
 159              		.loc 1 47 0 is_stmt 1
 160 00a8 002B     		cmp	r3, #0
 161 00aa 04DA     		bge	.L12
 162              		.loc 1 47 0 is_stmt 0 discriminator 1
 163 00ac 064A     		ldr	r2, .L14
 164 00ae 1F33     		adds	r3, r3, #31
 165 00b0 1370     		strb	r3, [r2]
 166 00b2 1F23     		movs	r3, #31
 167 00b4 5370     		strb	r3, [r2, #1]
 168              	.L12:
  48:Driving.c     ****     
  49:Driving.c     ****     PWM_1_WriteCompare1(ToLeft);
 169              		.loc 1 49 0 is_stmt 1
 170 00b6 044C     		ldr	r4, .L14
 171 00b8 2078     		ldrb	r0, [r4]	@ zero_extendqisi2
 172              	.LVL6:
 173 00ba FFF7FEFF 		bl	PWM_1_WriteCompare1
 174              	.LVL7:
  50:Driving.c     ****     PWM_1_WriteCompare2(ToRight);          
 175              		.loc 1 50 0
 176 00be 6078     		ldrb	r0, [r4, #1]	@ zero_extendqisi2
ARM GAS  C:\Users\Hugo\AppData\Local\Temp\ccLC25Ce.s 			page 5


 177 00c0 FFF7FEFF 		bl	PWM_1_WriteCompare2
 178              	.LVL8:
 179 00c4 10BD     		pop	{r4, pc}
 180              	.L15:
 181 00c6 00BF     		.align	2
 182              	.L14:
 183 00c8 00000000 		.word	.LANCHOR0
 184 00cc 00000000 		.word	holdR
 185 00d0 00000000 		.word	holdL
 186              		.cfi_endproc
 187              	.LFE63:
 188              		.size	Drive, .-Drive
 189              		.section	.text.Drive2,"ax",%progbits
 190              		.align	2
 191              		.global	Drive2
 192              		.thumb
 193              		.thumb_func
 194              		.type	Drive2, %function
 195              	Drive2:
 196              	.LFB64:
  51:Driving.c     **** }
  52:Driving.c     ****     void Drive2(uint8_t ir[8])
  53:Driving.c     **** {
 197              		.loc 1 53 0
 198              		.cfi_startproc
 199              		@ args = 0, pretend = 0, frame = 0
 200              		@ frame_needed = 0, uses_anonymous_args = 0
 201              	.LVL9:
 202 0000 10B5     		push	{r4, lr}
 203              		.cfi_def_cfa_offset 8
 204              		.cfi_offset 4, -8
 205              		.cfi_offset 14, -4
  54:Driving.c     ****     if(ir[0]>ir_compare){holdL =1;}
 206              		.loc 1 54 0
 207 0002 0378     		ldrb	r3, [r0]	@ zero_extendqisi2
 208 0004 602B     		cmp	r3, #96
 209 0006 02D9     		bls	.L17
 210              		.loc 1 54 0 is_stmt 0 discriminator 1
 211 0008 0122     		movs	r2, #1
 212 000a 344B     		ldr	r3, .L33
 213 000c 1A70     		strb	r2, [r3]
 214              	.L17:
  55:Driving.c     ****     if(ir[7]>ir_compare){holdR =1;}
 215              		.loc 1 55 0 is_stmt 1
 216 000e C179     		ldrb	r1, [r0, #7]	@ zero_extendqisi2
 217 0010 6029     		cmp	r1, #96
 218 0012 02D9     		bls	.L18
 219              		.loc 1 55 0 is_stmt 0 discriminator 1
 220 0014 0122     		movs	r2, #1
 221 0016 324B     		ldr	r3, .L33+4
 222 0018 1A70     		strb	r2, [r3]
 223              	.L18:
  56:Driving.c     ****     if(holdL || holdR){ToLeft=255;ToRight=255;}
 224              		.loc 1 56 0 is_stmt 1
 225 001a 304B     		ldr	r3, .L33
 226 001c 1B78     		ldrb	r3, [r3]	@ zero_extendqisi2
 227 001e 002B     		cmp	r3, #0
ARM GAS  C:\Users\Hugo\AppData\Local\Temp\ccLC25Ce.s 			page 6


 228 0020 FFD1     		bne	.L20
 229              	.L20:
  57:Driving.c     ****     if(holdL && holdR);
  58:Driving.c     ****      ToLeft=0;
 230              		.loc 1 58 0
 231 0022 304B     		ldr	r3, .L33+8
 232 0024 0022     		movs	r2, #0
 233 0026 1A70     		strb	r2, [r3]
  59:Driving.c     ****      ToRight=0;   
 234              		.loc 1 59 0
 235 0028 5A70     		strb	r2, [r3, #1]
  60:Driving.c     ****     path =0;
 236              		.loc 1 60 0
 237 002a 1A71     		strb	r2, [r3, #4]
 238              	.LVL10:
 239              	.LBB3:
  61:Driving.c     ****     for (uint8_t i = 1; i < 4; i++){
 240              		.loc 1 61 0
 241 002c 0123     		movs	r3, #1
 242 002e 1DE0     		b	.L21
 243              	.LVL11:
 244              	.L24:
  62:Driving.c     ****         if(ir[i]>ir_compare)    {    holdR =0;  holdL =0;  ToLeft =Motor_Drive>>(i-1);  } 
 245              		.loc 1 62 0
 246 0030 C25C     		ldrb	r2, [r0, r3]	@ zero_extendqisi2
 247 0032 602A     		cmp	r2, #96
 248 0034 09D9     		bls	.L22
 249              		.loc 1 62 0 is_stmt 0 discriminator 1
 250 0036 0022     		movs	r2, #0
 251 0038 294C     		ldr	r4, .L33+4
 252 003a 2270     		strb	r2, [r4]
 253 003c 274C     		ldr	r4, .L33
 254 003e 2270     		strb	r2, [r4]
 255 0040 5C1E     		subs	r4, r3, #1
 256 0042 1F22     		movs	r2, #31
 257 0044 2241     		asrs	r2, r2, r4
 258 0046 274C     		ldr	r4, .L33+8
 259 0048 2270     		strb	r2, [r4]
 260              	.L22:
  63:Driving.c     ****         if(ir[7-i]>ir_compare)  {    holdL =0;  holdR =0;  ToRight=Motor_Drive>>(i-1);  }
 261              		.loc 1 63 0 is_stmt 1
 262 004a C3F10702 		rsb	r2, r3, #7
 263 004e 825C     		ldrb	r2, [r0, r2]	@ zero_extendqisi2
 264 0050 602A     		cmp	r2, #96
 265 0052 09D9     		bls	.L23
 266              		.loc 1 63 0 is_stmt 0 discriminator 1
 267 0054 0022     		movs	r2, #0
 268 0056 214C     		ldr	r4, .L33
 269 0058 2270     		strb	r2, [r4]
 270 005a 214C     		ldr	r4, .L33+4
 271 005c 2270     		strb	r2, [r4]
 272 005e 5C1E     		subs	r4, r3, #1
 273 0060 1F22     		movs	r2, #31
 274 0062 2241     		asrs	r2, r2, r4
 275 0064 1F4C     		ldr	r4, .L33+8
 276 0066 6270     		strb	r2, [r4, #1]
 277              	.L23:
ARM GAS  C:\Users\Hugo\AppData\Local\Temp\ccLC25Ce.s 			page 7


  61:Driving.c     ****     for (uint8_t i = 1; i < 4; i++){
 278              		.loc 1 61 0 is_stmt 1 discriminator 2
 279 0068 0133     		adds	r3, r3, #1
 280              	.LVL12:
 281 006a DBB2     		uxtb	r3, r3
 282              	.LVL13:
 283              	.L21:
  61:Driving.c     ****     for (uint8_t i = 1; i < 4; i++){
 284              		.loc 1 61 0 is_stmt 0 discriminator 1
 285 006c 032B     		cmp	r3, #3
 286 006e DFD9     		bls	.L24
 287              	.LBE3:
  64:Driving.c     ****     }
  65:Driving.c     ****     if(ir[0]>ir_compare)    {holdL =1;  }   
 288              		.loc 1 65 0 is_stmt 1
 289 0070 0378     		ldrb	r3, [r0]	@ zero_extendqisi2
 290              	.LVL14:
 291 0072 602B     		cmp	r3, #96
 292 0074 02D9     		bls	.L25
 293              		.loc 1 65 0 is_stmt 0 discriminator 1
 294 0076 0122     		movs	r2, #1
 295 0078 184B     		ldr	r3, .L33
 296 007a 1A70     		strb	r2, [r3]
 297              	.L25:
  66:Driving.c     ****     if(ir[7]>ir_compare)    {holdR =1;  } 
 298              		.loc 1 66 0 is_stmt 1
 299 007c 6029     		cmp	r1, #96
 300 007e 02D9     		bls	.L26
 301              		.loc 1 66 0 is_stmt 0 discriminator 1
 302 0080 0122     		movs	r2, #1
 303 0082 174B     		ldr	r3, .L33+4
 304 0084 1A70     		strb	r2, [r3]
 305              	.L26:
  67:Driving.c     ****     if(holdL==1)       ToLeft=255;
 306              		.loc 1 67 0 is_stmt 1
 307 0086 154B     		ldr	r3, .L33
 308 0088 1B78     		ldrb	r3, [r3]	@ zero_extendqisi2
 309 008a 13B1     		cbz	r3, .L27
 310              		.loc 1 67 0 is_stmt 0 discriminator 1
 311 008c FF22     		movs	r2, #255
 312 008e 154B     		ldr	r3, .L33+8
 313 0090 1A70     		strb	r2, [r3]
 314              	.L27:
  68:Driving.c     ****     if(holdR==1)       ToRight=255;
 315              		.loc 1 68 0 is_stmt 1
 316 0092 134B     		ldr	r3, .L33+4
 317 0094 1B78     		ldrb	r3, [r3]	@ zero_extendqisi2
 318 0096 13B1     		cbz	r3, .L28
 319              		.loc 1 68 0 is_stmt 0 discriminator 1
 320 0098 FF22     		movs	r2, #255
 321 009a 124B     		ldr	r3, .L33+8
 322 009c 5A70     		strb	r2, [r3, #1]
 323              	.L28:
  69:Driving.c     ****     
  70:Driving.c     ****     direction = ToLeft;    
 324              		.loc 1 70 0 is_stmt 1
 325 009e 114A     		ldr	r2, .L33+8
ARM GAS  C:\Users\Hugo\AppData\Local\Temp\ccLC25Ce.s 			page 8


 326 00a0 1378     		ldrb	r3, [r2]	@ zero_extendqisi2
  71:Driving.c     ****     direction -= ToRight;    
 327              		.loc 1 71 0
 328 00a2 5178     		ldrb	r1, [r2, #1]	@ zero_extendqisi2
 329 00a4 5B1A     		subs	r3, r3, r1
 330 00a6 5380     		strh	r3, [r2, #2]	@ movhi
  72:Driving.c     ****     
  73:Driving.c     ****     if(direction>0)     {ToLeft = Motor_Main; ToRight = Motor_Main - direction;}
 331              		.loc 1 73 0
 332 00a8 002B     		cmp	r3, #0
 333 00aa 03DD     		ble	.L29
 334              		.loc 1 73 0 is_stmt 0 discriminator 1
 335 00ac 1F21     		movs	r1, #31
 336 00ae 1170     		strb	r1, [r2]
 337 00b0 C91A     		subs	r1, r1, r3
 338 00b2 5170     		strb	r1, [r2, #1]
 339              	.L29:
  74:Driving.c     ****     if(direction==0)    {ToLeft = Motor_Drive; ToRight = Motor_Drive;}
 340              		.loc 1 74 0 is_stmt 1
 341 00b4 1BB9     		cbnz	r3, .L30
 342              		.loc 1 74 0 is_stmt 0 discriminator 1
 343 00b6 0B4A     		ldr	r2, .L33+8
 344 00b8 1F21     		movs	r1, #31
 345 00ba 1170     		strb	r1, [r2]
 346 00bc 5170     		strb	r1, [r2, #1]
 347              	.L30:
  75:Driving.c     ****     if(direction<0)     {ToLeft = Motor_Main+ direction; ToRight = Motor_Main;}
 348              		.loc 1 75 0 is_stmt 1
 349 00be 002B     		cmp	r3, #0
 350 00c0 04DA     		bge	.L31
 351              		.loc 1 75 0 is_stmt 0 discriminator 1
 352 00c2 084A     		ldr	r2, .L33+8
 353 00c4 1F33     		adds	r3, r3, #31
 354 00c6 1370     		strb	r3, [r2]
 355 00c8 1F23     		movs	r3, #31
 356 00ca 5370     		strb	r3, [r2, #1]
 357              	.L31:
  76:Driving.c     ****     
  77:Driving.c     ****     PWM_1_WriteCompare1(ToLeft);
 358              		.loc 1 77 0 is_stmt 1
 359 00cc 054C     		ldr	r4, .L33+8
 360 00ce 2078     		ldrb	r0, [r4]	@ zero_extendqisi2
 361              	.LVL15:
 362 00d0 FFF7FEFF 		bl	PWM_1_WriteCompare1
 363              	.LVL16:
  78:Driving.c     ****     PWM_1_WriteCompare2(ToRight);  
 364              		.loc 1 78 0
 365 00d4 6078     		ldrb	r0, [r4, #1]	@ zero_extendqisi2
 366 00d6 FFF7FEFF 		bl	PWM_1_WriteCompare2
 367              	.LVL17:
 368 00da 10BD     		pop	{r4, pc}
 369              	.L34:
 370              		.align	2
 371              	.L33:
 372 00dc 00000000 		.word	holdL
 373 00e0 00000000 		.word	holdR
 374 00e4 00000000 		.word	.LANCHOR0
ARM GAS  C:\Users\Hugo\AppData\Local\Temp\ccLC25Ce.s 			page 9


 375              		.cfi_endproc
 376              	.LFE64:
 377              		.size	Drive2, .-Drive2
 378              		.section	.text.Straight,"ax",%progbits
 379              		.align	2
 380              		.global	Straight
 381              		.thumb
 382              		.thumb_func
 383              		.type	Straight, %function
 384              	Straight:
 385              	.LFB67:
  79:Driving.c     **** }
  80:Driving.c     **** 
  81:Driving.c     **** 
  82:Driving.c     ****     void DriveBetter(uint8_t ir[8])
  83:Driving.c     **** {     
  84:Driving.c     ****     if(ir[0]>ir_compare){holdL =1;}
  85:Driving.c     ****     if(ir[7]>ir_compare){holdR =1;}    
  86:Driving.c     ****     if(holdL && holdR)  {  Straight(); }      
  87:Driving.c     ****     if(holdL)  {HardTurn(Left); }
  88:Driving.c     ****     if(holdR)  {HardTurn(Right);}       
  89:Driving.c     ****     for (uint8_t i = 0; i < 3; i++){
  90:Driving.c     ****         if(ir[1+i]>ir_compare){   holdL =0;   holdR =0;   Turn(Left,i);  return;}
  91:Driving.c     ****         if(ir[6-i]>ir_compare){ holdL =0;   holdR =0;   Turn(Right,i);  return;}
  92:Driving.c     ****     }
  93:Driving.c     ****     if(!holdL && !holdR)    Straight();     
  94:Driving.c     **** }
  95:Driving.c     **** void DriveBetterSwing(uint8_t ir[8])
  96:Driving.c     **** {     
  97:Driving.c     ****     if(ir[0]>ir_compare || ir[1]>ir_compare){holdL =1;}
  98:Driving.c     ****     if(ir[7]>ir_compare || ir[6]>ir_compare){holdR =1;}    
  99:Driving.c     ****     if(holdL && holdR)  {  Straight(); }      
 100:Driving.c     ****     if(holdL)  {HardTurn(Left); }
 101:Driving.c     ****     if(holdR)  {HardTurn(Right);}       
 102:Driving.c     ****     for (uint8_t i = 0; i < 3; i++){
 103:Driving.c     ****         if(ir[1+i]>ir_compare){   holdL =0;   holdR =0;   Turn_Difference(Left,i);  return;}
 104:Driving.c     ****         if(ir[6-i]>ir_compare){ holdL =0;   holdR =0;   Turn_Difference(Right,i);  return;}
 105:Driving.c     ****     }
 106:Driving.c     ****     if(!holdL && !holdR)    Straight(); 
 107:Driving.c     **** }
 108:Driving.c     ****     
 109:Driving.c     **** void Straight()
 110:Driving.c     **** {    
 386              		.loc 1 110 0
 387              		.cfi_startproc
 388              		@ args = 0, pretend = 0, frame = 0
 389              		@ frame_needed = 0, uses_anonymous_args = 0
 390 0000 08B5     		push	{r3, lr}
 391              		.cfi_def_cfa_offset 8
 392              		.cfi_offset 3, -8
 393              		.cfi_offset 14, -4
 111:Driving.c     ****     Pin_Motor_1_Write(Forward);
 394              		.loc 1 111 0
 395 0002 0120     		movs	r0, #1
 396 0004 FFF7FEFF 		bl	Pin_Motor_1_Write
 397              	.LVL18:
 112:Driving.c     ****     Pin_Motor_2_Write(Forward);
ARM GAS  C:\Users\Hugo\AppData\Local\Temp\ccLC25Ce.s 			page 10


 398              		.loc 1 112 0
 399 0008 0120     		movs	r0, #1
 400 000a FFF7FEFF 		bl	Pin_Motor_2_Write
 401              	.LVL19:
 113:Driving.c     ****     PWM_1_WriteCompare1(Motor_Drive);
 402              		.loc 1 113 0
 403 000e 1F20     		movs	r0, #31
 404 0010 FFF7FEFF 		bl	PWM_1_WriteCompare1
 405              	.LVL20:
 114:Driving.c     ****     PWM_1_WriteCompare2(Motor_Drive);  
 406              		.loc 1 114 0
 407 0014 1F20     		movs	r0, #31
 408 0016 FFF7FEFF 		bl	PWM_1_WriteCompare2
 409              	.LVL21:
 410 001a 08BD     		pop	{r3, pc}
 411              		.cfi_endproc
 412              	.LFE67:
 413              		.size	Straight, .-Straight
 414              		.section	.text.Backwards,"ax",%progbits
 415              		.align	2
 416              		.global	Backwards
 417              		.thumb
 418              		.thumb_func
 419              		.type	Backwards, %function
 420              	Backwards:
 421              	.LFB68:
 115:Driving.c     **** }
 116:Driving.c     **** void Backwards()
 117:Driving.c     **** {    
 422              		.loc 1 117 0
 423              		.cfi_startproc
 424              		@ args = 0, pretend = 0, frame = 0
 425              		@ frame_needed = 0, uses_anonymous_args = 0
 426 0000 08B5     		push	{r3, lr}
 427              		.cfi_def_cfa_offset 8
 428              		.cfi_offset 3, -8
 429              		.cfi_offset 14, -4
 118:Driving.c     ****     Pin_Motor_1_Write(Backward);
 430              		.loc 1 118 0
 431 0002 0220     		movs	r0, #2
 432 0004 FFF7FEFF 		bl	Pin_Motor_1_Write
 433              	.LVL22:
 119:Driving.c     ****     Pin_Motor_2_Write(Backward);
 434              		.loc 1 119 0
 435 0008 0220     		movs	r0, #2
 436 000a FFF7FEFF 		bl	Pin_Motor_2_Write
 437              	.LVL23:
 120:Driving.c     ****     PWM_1_WriteCompare1(Motor_Drive);
 438              		.loc 1 120 0
 439 000e 1F20     		movs	r0, #31
 440 0010 FFF7FEFF 		bl	PWM_1_WriteCompare1
 441              	.LVL24:
 121:Driving.c     ****     PWM_1_WriteCompare2(Motor_Drive);  
 442              		.loc 1 121 0
 443 0014 1F20     		movs	r0, #31
 444 0016 FFF7FEFF 		bl	PWM_1_WriteCompare2
 445              	.LVL25:
ARM GAS  C:\Users\Hugo\AppData\Local\Temp\ccLC25Ce.s 			page 11


 446 001a 08BD     		pop	{r3, pc}
 447              		.cfi_endproc
 448              	.LFE68:
 449              		.size	Backwards, .-Backwards
 450              		.section	.text.HardTurn,"ax",%progbits
 451              		.align	2
 452              		.global	HardTurn
 453              		.thumb
 454              		.thumb_func
 455              		.type	HardTurn, %function
 456              	HardTurn:
 457              	.LFB69:
 122:Driving.c     **** }
 123:Driving.c     **** void HardTurn(_Bool left_right)
 124:Driving.c     **** {
 458              		.loc 1 124 0
 459              		.cfi_startproc
 460              		@ args = 0, pretend = 0, frame = 0
 461              		@ frame_needed = 0, uses_anonymous_args = 0
 462              	.LVL26:
 463 0000 08B5     		push	{r3, lr}
 464              		.cfi_def_cfa_offset 8
 465              		.cfi_offset 3, -8
 466              		.cfi_offset 14, -4
 125:Driving.c     ****     if(left_right)  {Pin_Motor_1_Write(Backward);   Pin_Motor_2_Write(Forward); Pin_Led_5_Write(1);
 467              		.loc 1 125 0
 468 0002 48B1     		cbz	r0, .L40
 469              		.loc 1 125 0 is_stmt 0 discriminator 1
 470 0004 0220     		movs	r0, #2
 471              	.LVL27:
 472 0006 FFF7FEFF 		bl	Pin_Motor_1_Write
 473              	.LVL28:
 474 000a 0120     		movs	r0, #1
 475 000c FFF7FEFF 		bl	Pin_Motor_2_Write
 476              	.LVL29:
 477 0010 0120     		movs	r0, #1
 478 0012 FFF7FEFF 		bl	Pin_Led_5_Write
 479              	.LVL30:
 480 0016 08E0     		b	.L41
 481              	.LVL31:
 482              	.L40:
 126:Driving.c     ****     else            {Pin_Motor_1_Write(Forward);    Pin_Motor_2_Write(Backward);Pin_Led_1_Write(1);
 483              		.loc 1 126 0 is_stmt 1
 484 0018 0120     		movs	r0, #1
 485              	.LVL32:
 486 001a FFF7FEFF 		bl	Pin_Motor_1_Write
 487              	.LVL33:
 488 001e 0220     		movs	r0, #2
 489 0020 FFF7FEFF 		bl	Pin_Motor_2_Write
 490              	.LVL34:
 491 0024 0120     		movs	r0, #1
 492 0026 FFF7FEFF 		bl	Pin_Led_1_Write
 493              	.LVL35:
 494              	.L41:
 127:Driving.c     ****     PWM_1_WriteCompare1(Motor_Turn);
 495              		.loc 1 127 0
 496 002a 1F20     		movs	r0, #31
ARM GAS  C:\Users\Hugo\AppData\Local\Temp\ccLC25Ce.s 			page 12


 497 002c FFF7FEFF 		bl	PWM_1_WriteCompare1
 498              	.LVL36:
 128:Driving.c     ****     PWM_1_WriteCompare2(Motor_Turn);
 499              		.loc 1 128 0
 500 0030 1F20     		movs	r0, #31
 501 0032 FFF7FEFF 		bl	PWM_1_WriteCompare2
 502              	.LVL37:
 503 0036 08BD     		pop	{r3, pc}
 504              		.cfi_endproc
 505              	.LFE69:
 506              		.size	HardTurn, .-HardTurn
 507              		.section	.text.Turn,"ax",%progbits
 508              		.align	2
 509              		.global	Turn
 510              		.thumb
 511              		.thumb_func
 512              		.type	Turn, %function
 513              	Turn:
 514              	.LFB70:
 129:Driving.c     **** }
 130:Driving.c     **** void Turn(_Bool left_right, uint8_t irLocation)
 131:Driving.c     **** {    
 515              		.loc 1 131 0
 516              		.cfi_startproc
 517              		@ args = 0, pretend = 0, frame = 0
 518              		@ frame_needed = 0, uses_anonymous_args = 0
 519              	.LVL38:
 520 0000 38B5     		push	{r3, r4, r5, lr}
 521              		.cfi_def_cfa_offset 16
 522              		.cfi_offset 3, -16
 523              		.cfi_offset 4, -12
 524              		.cfi_offset 5, -8
 525              		.cfi_offset 14, -4
 526 0002 0546     		mov	r5, r0
 527 0004 0C46     		mov	r4, r1
 132:Driving.c     ****     Pin_Motor_1_Write(Forward);
 528              		.loc 1 132 0
 529 0006 0120     		movs	r0, #1
 530              	.LVL39:
 531 0008 FFF7FEFF 		bl	Pin_Motor_1_Write
 532              	.LVL40:
 133:Driving.c     ****     Pin_Motor_2_Write(Forward);    
 533              		.loc 1 133 0
 534 000c 0120     		movs	r0, #1
 535 000e FFF7FEFF 		bl	Pin_Motor_2_Write
 536              	.LVL41:
 134:Driving.c     ****     if(left_right)
 537              		.loc 1 134 0
 538 0012 45B1     		cbz	r5, .L44
 135:Driving.c     ****     {
 136:Driving.c     ****         PWM_1_WriteCompare1(motor_Direction_Low[irLocation]);
 539              		.loc 1 136 0
 540 0014 084D     		ldr	r5, .L47
 541 0016 285D     		ldrb	r0, [r5, r4]	@ zero_extendqisi2
 542 0018 FFF7FEFF 		bl	PWM_1_WriteCompare1
 543              	.LVL42:
 137:Driving.c     ****         PWM_1_WriteCompare2(motor_Direction_High[irLocation]);
ARM GAS  C:\Users\Hugo\AppData\Local\Temp\ccLC25Ce.s 			page 13


 544              		.loc 1 137 0
 545 001c 2C44     		add	r4, r4, r5
 546 001e 2079     		ldrb	r0, [r4, #4]	@ zero_extendqisi2
 547 0020 FFF7FEFF 		bl	PWM_1_WriteCompare2
 548              	.LVL43:
 549 0024 38BD     		pop	{r3, r4, r5, pc}
 550              	.L44:
 138:Driving.c     ****     }   
 139:Driving.c     ****     else          
 140:Driving.c     ****     {
 141:Driving.c     ****         PWM_1_WriteCompare1(motor_Direction_High[irLocation]);
 551              		.loc 1 141 0
 552 0026 044D     		ldr	r5, .L47
 553 0028 2B19     		adds	r3, r5, r4
 554 002a 1879     		ldrb	r0, [r3, #4]	@ zero_extendqisi2
 555 002c FFF7FEFF 		bl	PWM_1_WriteCompare1
 556              	.LVL44:
 142:Driving.c     ****         PWM_1_WriteCompare2(motor_Direction_Low[irLocation]);
 557              		.loc 1 142 0
 558 0030 285D     		ldrb	r0, [r5, r4]	@ zero_extendqisi2
 559 0032 FFF7FEFF 		bl	PWM_1_WriteCompare2
 560              	.LVL45:
 561 0036 38BD     		pop	{r3, r4, r5, pc}
 562              	.L48:
 563              		.align	2
 564              	.L47:
 565 0038 00000000 		.word	.LANCHOR1
 566              		.cfi_endproc
 567              	.LFE70:
 568              		.size	Turn, .-Turn
 569              		.section	.text.DriveBetter,"ax",%progbits
 570              		.align	2
 571              		.global	DriveBetter
 572              		.thumb
 573              		.thumb_func
 574              		.type	DriveBetter, %function
 575              	DriveBetter:
 576              	.LFB65:
  83:Driving.c     ****     if(ir[0]>ir_compare){holdL =1;}
 577              		.loc 1 83 0
 578              		.cfi_startproc
 579              		@ args = 0, pretend = 0, frame = 0
 580              		@ frame_needed = 0, uses_anonymous_args = 0
 581              	.LVL46:
 582 0000 10B5     		push	{r4, lr}
 583              		.cfi_def_cfa_offset 8
 584              		.cfi_offset 4, -8
 585              		.cfi_offset 14, -4
 586 0002 0446     		mov	r4, r0
  84:Driving.c     ****     if(ir[7]>ir_compare){holdR =1;}    
 587              		.loc 1 84 0
 588 0004 0378     		ldrb	r3, [r0]	@ zero_extendqisi2
 589 0006 602B     		cmp	r3, #96
 590 0008 02D9     		bls	.L50
  84:Driving.c     ****     if(ir[7]>ir_compare){holdR =1;}    
 591              		.loc 1 84 0 is_stmt 0 discriminator 1
 592 000a 0122     		movs	r2, #1
ARM GAS  C:\Users\Hugo\AppData\Local\Temp\ccLC25Ce.s 			page 14


 593 000c 224B     		ldr	r3, .L61
 594 000e 1A70     		strb	r2, [r3]
 595              	.L50:
  85:Driving.c     ****     if(holdL && holdR)  {  Straight(); }      
 596              		.loc 1 85 0 is_stmt 1
 597 0010 E379     		ldrb	r3, [r4, #7]	@ zero_extendqisi2
 598 0012 602B     		cmp	r3, #96
 599 0014 02D9     		bls	.L51
  85:Driving.c     ****     if(holdL && holdR)  {  Straight(); }      
 600              		.loc 1 85 0 is_stmt 0 discriminator 1
 601 0016 0122     		movs	r2, #1
 602 0018 204B     		ldr	r3, .L61+4
 603 001a 1A70     		strb	r2, [r3]
 604              	.L51:
  86:Driving.c     ****     if(holdL)  {HardTurn(Left); }
 605              		.loc 1 86 0 is_stmt 1
 606 001c 1E4B     		ldr	r3, .L61
 607 001e 1B78     		ldrb	r3, [r3]	@ zero_extendqisi2
 608 0020 23B1     		cbz	r3, .L52
  86:Driving.c     ****     if(holdL)  {HardTurn(Left); }
 609              		.loc 1 86 0 is_stmt 0 discriminator 1
 610 0022 1E4B     		ldr	r3, .L61+4
 611 0024 1B78     		ldrb	r3, [r3]	@ zero_extendqisi2
 612 0026 0BB1     		cbz	r3, .L52
  86:Driving.c     ****     if(holdL)  {HardTurn(Left); }
 613              		.loc 1 86 0 discriminator 2
 614 0028 FFF7FEFF 		bl	Straight
 615              	.LVL47:
 616              	.L52:
  87:Driving.c     ****     if(holdR)  {HardTurn(Right);}       
 617              		.loc 1 87 0 is_stmt 1
 618 002c 1A4B     		ldr	r3, .L61
 619 002e 1B78     		ldrb	r3, [r3]	@ zero_extendqisi2
 620 0030 13B1     		cbz	r3, .L53
  87:Driving.c     ****     if(holdR)  {HardTurn(Right);}       
 621              		.loc 1 87 0 is_stmt 0 discriminator 1
 622 0032 0120     		movs	r0, #1
 623 0034 FFF7FEFF 		bl	HardTurn
 624              	.LVL48:
 625              	.L53:
  88:Driving.c     ****     for (uint8_t i = 0; i < 3; i++){
 626              		.loc 1 88 0 is_stmt 1
 627 0038 184B     		ldr	r3, .L61+4
 628 003a 1B78     		ldrb	r3, [r3]	@ zero_extendqisi2
 629 003c 13B1     		cbz	r3, .L54
  88:Driving.c     ****     for (uint8_t i = 0; i < 3; i++){
 630              		.loc 1 88 0 is_stmt 0 discriminator 1
 631 003e 0020     		movs	r0, #0
 632 0040 FFF7FEFF 		bl	HardTurn
 633              	.LVL49:
 634              	.L54:
 635              	.LBB4:
  89:Driving.c     ****         if(ir[1+i]>ir_compare){   holdL =0;   holdR =0;   Turn(Left,i);  return;}
 636              		.loc 1 89 0 is_stmt 1
 637 0044 0021     		movs	r1, #0
 638 0046 1BE0     		b	.L55
 639              	.LVL50:
ARM GAS  C:\Users\Hugo\AppData\Local\Temp\ccLC25Ce.s 			page 15


 640              	.L59:
  90:Driving.c     ****         if(ir[6-i]>ir_compare){ holdL =0;   holdR =0;   Turn(Right,i);  return;}
 641              		.loc 1 90 0
 642 0048 4B1C     		adds	r3, r1, #1
 643 004a E35C     		ldrb	r3, [r4, r3]	@ zero_extendqisi2
 644 004c 602B     		cmp	r3, #96
 645 004e 08D9     		bls	.L56
  90:Driving.c     ****         if(ir[6-i]>ir_compare){ holdL =0;   holdR =0;   Turn(Right,i);  return;}
 646              		.loc 1 90 0 is_stmt 0 discriminator 1
 647 0050 0023     		movs	r3, #0
 648 0052 114A     		ldr	r2, .L61
 649 0054 1370     		strb	r3, [r2]
 650 0056 114A     		ldr	r2, .L61+4
 651 0058 1370     		strb	r3, [r2]
 652 005a 0120     		movs	r0, #1
 653 005c FFF7FEFF 		bl	Turn
 654              	.LVL51:
 655 0060 10BD     		pop	{r4, pc}
 656              	.LVL52:
 657              	.L56:
  91:Driving.c     ****     }
 658              		.loc 1 91 0 is_stmt 1
 659 0062 C1F10603 		rsb	r3, r1, #6
 660 0066 E35C     		ldrb	r3, [r4, r3]	@ zero_extendqisi2
 661 0068 602B     		cmp	r3, #96
 662 006a 07D9     		bls	.L58
  91:Driving.c     ****     }
 663              		.loc 1 91 0 is_stmt 0 discriminator 1
 664 006c 0020     		movs	r0, #0
 665 006e 0A4B     		ldr	r3, .L61
 666 0070 1870     		strb	r0, [r3]
 667 0072 0A4B     		ldr	r3, .L61+4
 668 0074 1870     		strb	r0, [r3]
 669 0076 FFF7FEFF 		bl	Turn
 670              	.LVL53:
 671 007a 10BD     		pop	{r4, pc}
 672              	.LVL54:
 673              	.L58:
  89:Driving.c     ****         if(ir[1+i]>ir_compare){   holdL =0;   holdR =0;   Turn(Left,i);  return;}
 674              		.loc 1 89 0 is_stmt 1 discriminator 2
 675 007c 0131     		adds	r1, r1, #1
 676              	.LVL55:
 677 007e C9B2     		uxtb	r1, r1
 678              	.LVL56:
 679              	.L55:
  89:Driving.c     ****         if(ir[1+i]>ir_compare){   holdL =0;   holdR =0;   Turn(Left,i);  return;}
 680              		.loc 1 89 0 is_stmt 0 discriminator 1
 681 0080 0229     		cmp	r1, #2
 682 0082 E1D9     		bls	.L59
 683              	.LBE4:
  93:Driving.c     **** }
 684              		.loc 1 93 0 is_stmt 1
 685 0084 044B     		ldr	r3, .L61
 686 0086 1B78     		ldrb	r3, [r3]	@ zero_extendqisi2
 687 0088 23B9     		cbnz	r3, .L49
  93:Driving.c     **** }
 688              		.loc 1 93 0 is_stmt 0 discriminator 1
ARM GAS  C:\Users\Hugo\AppData\Local\Temp\ccLC25Ce.s 			page 16


 689 008a 044B     		ldr	r3, .L61+4
 690 008c 1B78     		ldrb	r3, [r3]	@ zero_extendqisi2
 691 008e 0BB9     		cbnz	r3, .L49
  93:Driving.c     **** }
 692              		.loc 1 93 0 discriminator 2
 693 0090 FFF7FEFF 		bl	Straight
 694              	.LVL57:
 695              	.L49:
 696 0094 10BD     		pop	{r4, pc}
 697              	.LVL58:
 698              	.L62:
 699 0096 00BF     		.align	2
 700              	.L61:
 701 0098 00000000 		.word	holdL
 702 009c 00000000 		.word	holdR
 703              		.cfi_endproc
 704              	.LFE65:
 705              		.size	DriveBetter, .-DriveBetter
 706              		.section	.text.Turn_Difference,"ax",%progbits
 707              		.align	2
 708              		.global	Turn_Difference
 709              		.thumb
 710              		.thumb_func
 711              		.type	Turn_Difference, %function
 712              	Turn_Difference:
 713              	.LFB71:
 143:Driving.c     ****     }     
 144:Driving.c     **** }
 145:Driving.c     **** void Turn_Difference(_Bool left_right, uint8_t irLocation)
 146:Driving.c     **** {    
 714              		.loc 1 146 0 is_stmt 1
 715              		.cfi_startproc
 716              		@ args = 0, pretend = 0, frame = 0
 717              		@ frame_needed = 0, uses_anonymous_args = 0
 718              	.LVL59:
 719 0000 38B5     		push	{r3, r4, r5, lr}
 720              		.cfi_def_cfa_offset 16
 721              		.cfi_offset 3, -16
 722              		.cfi_offset 4, -12
 723              		.cfi_offset 5, -8
 724              		.cfi_offset 14, -4
 725 0002 0546     		mov	r5, r0
 726 0004 0C46     		mov	r4, r1
 147:Driving.c     ****     Pin_Motor_1_Write(Forward);
 727              		.loc 1 147 0
 728 0006 0120     		movs	r0, #1
 729              	.LVL60:
 730 0008 FFF7FEFF 		bl	Pin_Motor_1_Write
 731              	.LVL61:
 148:Driving.c     ****     Pin_Motor_2_Write(Forward);    
 732              		.loc 1 148 0
 733 000c 0120     		movs	r0, #1
 734 000e FFF7FEFF 		bl	Pin_Motor_2_Write
 735              	.LVL62:
 149:Driving.c     ****     if(left_right)  
 736              		.loc 1 149 0
 737 0012 5DB1     		cbz	r5, .L64
ARM GAS  C:\Users\Hugo\AppData\Local\Temp\ccLC25Ce.s 			page 17


 150:Driving.c     ****     {
 151:Driving.c     ****         PWM_1_WriteCompare1(Motor_Drive-motor_Difference[irLocation]);
 738              		.loc 1 151 0
 739 0014 0B4B     		ldr	r3, .L67
 740 0016 1C44     		add	r4, r4, r3
 741 0018 207A     		ldrb	r0, [r4, #8]	@ zero_extendqisi2
 742 001a C0F11F00 		rsb	r0, r0, #31
 743 001e C0B2     		uxtb	r0, r0
 744 0020 FFF7FEFF 		bl	PWM_1_WriteCompare1
 745              	.LVL63:
 152:Driving.c     ****         PWM_1_WriteCompare2(Motor_Turn);
 746              		.loc 1 152 0
 747 0024 1F20     		movs	r0, #31
 748 0026 FFF7FEFF 		bl	PWM_1_WriteCompare2
 749              	.LVL64:
 750 002a 38BD     		pop	{r3, r4, r5, pc}
 751              	.L64:
 153:Driving.c     ****     }   
 154:Driving.c     ****     else            
 155:Driving.c     ****     {
 156:Driving.c     ****         PWM_1_WriteCompare1(Motor_Turn);   
 752              		.loc 1 156 0
 753 002c 1F20     		movs	r0, #31
 754 002e FFF7FEFF 		bl	PWM_1_WriteCompare1
 755              	.LVL65:
 157:Driving.c     ****         PWM_1_WriteCompare2(Motor_Drive-motor_Difference[irLocation]);
 756              		.loc 1 157 0
 757 0032 044B     		ldr	r3, .L67
 758 0034 1C44     		add	r4, r4, r3
 759 0036 207A     		ldrb	r0, [r4, #8]	@ zero_extendqisi2
 760 0038 C0F11F00 		rsb	r0, r0, #31
 761 003c C0B2     		uxtb	r0, r0
 762 003e FFF7FEFF 		bl	PWM_1_WriteCompare2
 763              	.LVL66:
 764 0042 38BD     		pop	{r3, r4, r5, pc}
 765              	.L68:
 766              		.align	2
 767              	.L67:
 768 0044 00000000 		.word	.LANCHOR1
 769              		.cfi_endproc
 770              	.LFE71:
 771              		.size	Turn_Difference, .-Turn_Difference
 772              		.section	.text.DriveBetterSwing,"ax",%progbits
 773              		.align	2
 774              		.global	DriveBetterSwing
 775              		.thumb
 776              		.thumb_func
 777              		.type	DriveBetterSwing, %function
 778              	DriveBetterSwing:
 779              	.LFB66:
  96:Driving.c     ****     if(ir[0]>ir_compare || ir[1]>ir_compare){holdL =1;}
 780              		.loc 1 96 0
 781              		.cfi_startproc
 782              		@ args = 0, pretend = 0, frame = 0
 783              		@ frame_needed = 0, uses_anonymous_args = 0
 784              	.LVL67:
 785 0000 10B5     		push	{r4, lr}
ARM GAS  C:\Users\Hugo\AppData\Local\Temp\ccLC25Ce.s 			page 18


 786              		.cfi_def_cfa_offset 8
 787              		.cfi_offset 4, -8
 788              		.cfi_offset 14, -4
 789 0002 0446     		mov	r4, r0
  97:Driving.c     ****     if(ir[7]>ir_compare || ir[6]>ir_compare){holdR =1;}    
 790              		.loc 1 97 0
 791 0004 0378     		ldrb	r3, [r0]	@ zero_extendqisi2
 792 0006 602B     		cmp	r3, #96
 793 0008 02D8     		bhi	.L70
  97:Driving.c     ****     if(ir[7]>ir_compare || ir[6]>ir_compare){holdR =1;}    
 794              		.loc 1 97 0 is_stmt 0 discriminator 2
 795 000a 4378     		ldrb	r3, [r0, #1]	@ zero_extendqisi2
 796 000c 602B     		cmp	r3, #96
 797 000e 02D9     		bls	.L71
 798              	.L70:
  97:Driving.c     ****     if(ir[7]>ir_compare || ir[6]>ir_compare){holdR =1;}    
 799              		.loc 1 97 0 discriminator 3
 800 0010 0122     		movs	r2, #1
 801 0012 244B     		ldr	r3, .L83
 802 0014 1A70     		strb	r2, [r3]
 803              	.L71:
  98:Driving.c     ****     if(holdL && holdR)  {  Straight(); }      
 804              		.loc 1 98 0 is_stmt 1
 805 0016 E379     		ldrb	r3, [r4, #7]	@ zero_extendqisi2
 806 0018 602B     		cmp	r3, #96
 807 001a 02D8     		bhi	.L72
  98:Driving.c     ****     if(holdL && holdR)  {  Straight(); }      
 808              		.loc 1 98 0 is_stmt 0 discriminator 2
 809 001c A379     		ldrb	r3, [r4, #6]	@ zero_extendqisi2
 810 001e 602B     		cmp	r3, #96
 811 0020 02D9     		bls	.L73
 812              	.L72:
  98:Driving.c     ****     if(holdL && holdR)  {  Straight(); }      
 813              		.loc 1 98 0 discriminator 3
 814 0022 0122     		movs	r2, #1
 815 0024 204B     		ldr	r3, .L83+4
 816 0026 1A70     		strb	r2, [r3]
 817              	.L73:
  99:Driving.c     ****     if(holdL)  {HardTurn(Left); }
 818              		.loc 1 99 0 is_stmt 1
 819 0028 1E4B     		ldr	r3, .L83
 820 002a 1B78     		ldrb	r3, [r3]	@ zero_extendqisi2
 821 002c 23B1     		cbz	r3, .L74
  99:Driving.c     ****     if(holdL)  {HardTurn(Left); }
 822              		.loc 1 99 0 is_stmt 0 discriminator 1
 823 002e 1E4B     		ldr	r3, .L83+4
 824 0030 1B78     		ldrb	r3, [r3]	@ zero_extendqisi2
 825 0032 0BB1     		cbz	r3, .L74
  99:Driving.c     ****     if(holdL)  {HardTurn(Left); }
 826              		.loc 1 99 0 discriminator 2
 827 0034 FFF7FEFF 		bl	Straight
 828              	.LVL68:
 829              	.L74:
 100:Driving.c     ****     if(holdR)  {HardTurn(Right);}       
 830              		.loc 1 100 0 is_stmt 1
 831 0038 1A4B     		ldr	r3, .L83
 832 003a 1B78     		ldrb	r3, [r3]	@ zero_extendqisi2
ARM GAS  C:\Users\Hugo\AppData\Local\Temp\ccLC25Ce.s 			page 19


 833 003c 13B1     		cbz	r3, .L75
 100:Driving.c     ****     if(holdR)  {HardTurn(Right);}       
 834              		.loc 1 100 0 is_stmt 0 discriminator 1
 835 003e 0120     		movs	r0, #1
 836 0040 FFF7FEFF 		bl	HardTurn
 837              	.LVL69:
 838              	.L75:
 101:Driving.c     ****     for (uint8_t i = 0; i < 3; i++){
 839              		.loc 1 101 0 is_stmt 1
 840 0044 184B     		ldr	r3, .L83+4
 841 0046 1B78     		ldrb	r3, [r3]	@ zero_extendqisi2
 842 0048 13B1     		cbz	r3, .L76
 101:Driving.c     ****     for (uint8_t i = 0; i < 3; i++){
 843              		.loc 1 101 0 is_stmt 0 discriminator 1
 844 004a 0020     		movs	r0, #0
 845 004c FFF7FEFF 		bl	HardTurn
 846              	.LVL70:
 847              	.L76:
 848              	.LBB5:
 102:Driving.c     ****         if(ir[1+i]>ir_compare){   holdL =0;   holdR =0;   Turn_Difference(Left,i);  return;}
 849              		.loc 1 102 0 is_stmt 1
 850 0050 0021     		movs	r1, #0
 851 0052 1BE0     		b	.L77
 852              	.LVL71:
 853              	.L81:
 103:Driving.c     ****         if(ir[6-i]>ir_compare){ holdL =0;   holdR =0;   Turn_Difference(Right,i);  return;}
 854              		.loc 1 103 0
 855 0054 4B1C     		adds	r3, r1, #1
 856 0056 E35C     		ldrb	r3, [r4, r3]	@ zero_extendqisi2
 857 0058 602B     		cmp	r3, #96
 858 005a 08D9     		bls	.L78
 103:Driving.c     ****         if(ir[6-i]>ir_compare){ holdL =0;   holdR =0;   Turn_Difference(Right,i);  return;}
 859              		.loc 1 103 0 is_stmt 0 discriminator 1
 860 005c 0023     		movs	r3, #0
 861 005e 114A     		ldr	r2, .L83
 862 0060 1370     		strb	r3, [r2]
 863 0062 114A     		ldr	r2, .L83+4
 864 0064 1370     		strb	r3, [r2]
 865 0066 0120     		movs	r0, #1
 866 0068 FFF7FEFF 		bl	Turn_Difference
 867              	.LVL72:
 868 006c 10BD     		pop	{r4, pc}
 869              	.LVL73:
 870              	.L78:
 104:Driving.c     ****     }
 871              		.loc 1 104 0 is_stmt 1
 872 006e C1F10603 		rsb	r3, r1, #6
 873 0072 E35C     		ldrb	r3, [r4, r3]	@ zero_extendqisi2
 874 0074 602B     		cmp	r3, #96
 875 0076 07D9     		bls	.L80
 104:Driving.c     ****     }
 876              		.loc 1 104 0 is_stmt 0 discriminator 1
 877 0078 0020     		movs	r0, #0
 878 007a 0A4B     		ldr	r3, .L83
 879 007c 1870     		strb	r0, [r3]
 880 007e 0A4B     		ldr	r3, .L83+4
 881 0080 1870     		strb	r0, [r3]
ARM GAS  C:\Users\Hugo\AppData\Local\Temp\ccLC25Ce.s 			page 20


 882 0082 FFF7FEFF 		bl	Turn_Difference
 883              	.LVL74:
 884 0086 10BD     		pop	{r4, pc}
 885              	.LVL75:
 886              	.L80:
 102:Driving.c     ****         if(ir[1+i]>ir_compare){   holdL =0;   holdR =0;   Turn_Difference(Left,i);  return;}
 887              		.loc 1 102 0 is_stmt 1 discriminator 2
 888 0088 0131     		adds	r1, r1, #1
 889              	.LVL76:
 890 008a C9B2     		uxtb	r1, r1
 891              	.LVL77:
 892              	.L77:
 102:Driving.c     ****         if(ir[1+i]>ir_compare){   holdL =0;   holdR =0;   Turn_Difference(Left,i);  return;}
 893              		.loc 1 102 0 is_stmt 0 discriminator 1
 894 008c 0229     		cmp	r1, #2
 895 008e E1D9     		bls	.L81
 896              	.LBE5:
 106:Driving.c     **** }
 897              		.loc 1 106 0 is_stmt 1
 898 0090 044B     		ldr	r3, .L83
 899 0092 1B78     		ldrb	r3, [r3]	@ zero_extendqisi2
 900 0094 23B9     		cbnz	r3, .L69
 106:Driving.c     **** }
 901              		.loc 1 106 0 is_stmt 0 discriminator 1
 902 0096 044B     		ldr	r3, .L83+4
 903 0098 1B78     		ldrb	r3, [r3]	@ zero_extendqisi2
 904 009a 0BB9     		cbnz	r3, .L69
 106:Driving.c     **** }
 905              		.loc 1 106 0 discriminator 2
 906 009c FFF7FEFF 		bl	Straight
 907              	.LVL78:
 908              	.L69:
 909 00a0 10BD     		pop	{r4, pc}
 910              	.LVL79:
 911              	.L84:
 912 00a2 00BF     		.align	2
 913              	.L83:
 914 00a4 00000000 		.word	holdL
 915 00a8 00000000 		.word	holdR
 916              		.cfi_endproc
 917              	.LFE66:
 918              		.size	DriveBetterSwing, .-DriveBetterSwing
 919              		.global	ToRight
 920              		.global	ToLeft
 921              		.comm	holdR,1,1
 922              		.comm	holdL,1,1
 923              		.global	path
 924              		.global	direction
 925              		.global	motor_Difference
 926              		.global	motor_Direction_Low
 927              		.global	motor_Direction_High
 928              		.data
 929              		.align	2
 930              		.set	.LANCHOR1,. + 0
 931              		.type	motor_Direction_Low, %object
 932              		.size	motor_Direction_Low, 3
 933              	motor_Direction_Low:
ARM GAS  C:\Users\Hugo\AppData\Local\Temp\ccLC25Ce.s 			page 21


 934 0000 00       		.byte	0
 935 0001 09       		.byte	9
 936 0002 0E       		.byte	14
 937 0003 00       		.space	1
 938              		.type	motor_Direction_High, %object
 939              		.size	motor_Direction_High, 3
 940              	motor_Direction_High:
 941 0004 1F       		.byte	31
 942 0005 17       		.byte	23
 943 0006 12       		.byte	18
 944 0007 00       		.space	1
 945              		.type	motor_Difference, %object
 946              		.size	motor_Difference, 3
 947              	motor_Difference:
 948 0008 1F       		.byte	31
 949 0009 10       		.byte	16
 950 000a 04       		.byte	4
 951              		.bss
 952              		.align	1
 953              		.set	.LANCHOR0,. + 0
 954              		.type	ToLeft, %object
 955              		.size	ToLeft, 1
 956              	ToLeft:
 957 0000 00       		.space	1
 958              		.type	ToRight, %object
 959              		.size	ToRight, 1
 960              	ToRight:
 961 0001 00       		.space	1
 962              		.type	direction, %object
 963              		.size	direction, 2
 964              	direction:
 965 0002 0000     		.space	2
 966              		.type	path, %object
 967              		.size	path, 1
 968              	path:
 969 0004 00       		.space	1
 970              		.text
 971              	.Letext0:
 972              		.file 2 "c:\\program files (x86)\\cypress\\psoc creator\\4.2\\psoc creator\\import\\gnu\\arm\\5.4.
 973              		.file 3 "c:\\program files (x86)\\cypress\\psoc creator\\4.2\\psoc creator\\import\\gnu\\arm\\5.4.
 974              		.file 4 "Generated_Source\\PSoC5/cytypes.h"
 975              		.file 5 "Generated_Source\\PSoC5/core_cm3.h"
 976              		.file 6 "Generated_Source\\PSoC5/PWM_1.h"
 977              		.file 7 "Generated_Source\\PSoC5/Pin_Motor_1.h"
 978              		.file 8 "Generated_Source\\PSoC5/Pin_Motor_2.h"
 979              		.file 9 "Generated_Source\\PSoC5/Pin_Led_5.h"
 980              		.file 10 "Generated_Source\\PSoC5/Pin_Led_1.h"