ARM GAS  C:\Users\Jona\AppData\Local\Temp\ccs6tr5t.s 			page 1


   1              		.syntax unified
   2              		.cpu cortex-m3
   3              		.fpu softvfp
   4              		.eabi_attribute 20, 1
   5              		.eabi_attribute 21, 1
   6              		.eabi_attribute 23, 3
   7              		.eabi_attribute 24, 1
   8              		.eabi_attribute 25, 1
   9              		.eabi_attribute 26, 1
  10              		.eabi_attribute 30, 1
  11              		.eabi_attribute 34, 1
  12              		.eabi_attribute 18, 4
  13              		.thumb
  14              		.syntax unified
  15              		.file	"Blecommunicatie.c"
  16              		.text
  17              	.Ltext0:
  18              		.cfi_sections	.debug_frame
  19              		.section	.text.sendBleData,"ax",%progbits
  20              		.align	2
  21              		.global	sendBleData
  22              		.thumb
  23              		.thumb_func
  24              		.type	sendBleData, %function
  25              	sendBleData:
  26              	.LFB64:
  27              		.file 1 "Blecommunicatie.c"
   1:Blecommunicatie.c **** /* ========================================
   2:Blecommunicatie.c ****  *
   3:Blecommunicatie.c ****  * Copyright YOUR COMPANY, THE YEAR
   4:Blecommunicatie.c ****  * All Rights Reserved
   5:Blecommunicatie.c ****  * UNPUBLISHED, LICENSED SOFTWARE.
   6:Blecommunicatie.c ****  *
   7:Blecommunicatie.c ****  * CONFIDENTIAL AND PROPRIETARY INFORMATION
   8:Blecommunicatie.c ****  * WHICH IS THE PROPERTY OF your company.
   9:Blecommunicatie.c ****  *
  10:Blecommunicatie.c ****  * ========================================
  11:Blecommunicatie.c **** */
  12:Blecommunicatie.c **** 
  13:Blecommunicatie.c **** #include "projectMain.h"
  14:Blecommunicatie.c **** #include "project.h"
  15:Blecommunicatie.c **** #include <string.h>
  16:Blecommunicatie.c **** #include <stdio.h>
  17:Blecommunicatie.c **** #include <myUART.h>
  18:Blecommunicatie.c **** 
  19:Blecommunicatie.c **** CY_ISR(sendBleData)
  20:Blecommunicatie.c **** {
  28              		.loc 1 20 0
  29              		.cfi_startproc
  30              		@ args = 0, pretend = 0, frame = 0
  31              		@ frame_needed = 0, uses_anonymous_args = 0
  32 0000 08B5     		push	{r3, lr}
  33              		.cfi_def_cfa_offset 8
  34              		.cfi_offset 3, -8
  35              		.cfi_offset 14, -4
  21:Blecommunicatie.c ****     DecToHex(valueX);
  36              		.loc 1 21 0
ARM GAS  C:\Users\Jona\AppData\Local\Temp\ccs6tr5t.s 			page 2


  37 0002 024B     		ldr	r3, .L3
  38 0004 1878     		ldrb	r0, [r3]	@ zero_extendqisi2
  39 0006 FFF7FEFF 		bl	DecToHex
  40              	.LVL0:
  41 000a 08BD     		pop	{r3, pc}
  42              	.L4:
  43              		.align	2
  44              	.L3:
  45 000c 00000000 		.word	valueX
  46              		.cfi_endproc
  47              	.LFE64:
  48              		.size	sendBleData, .-sendBleData
  49              		.section	.text.ProcessCommandMsg,"ax",%progbits
  50              		.align	2
  51              		.global	ProcessCommandMsg
  52              		.thumb
  53              		.thumb_func
  54              		.type	ProcessCommandMsg, %function
  55              	ProcessCommandMsg:
  56              	.LFB65:
  22:Blecommunicatie.c **** }
  23:Blecommunicatie.c **** 
  24:Blecommunicatie.c **** void ProcessCommandMsg(void){
  57              		.loc 1 24 0
  58              		.cfi_startproc
  59              		@ args = 0, pretend = 0, frame = 0
  60              		@ frame_needed = 0, uses_anonymous_args = 0
  61 0000 10B5     		push	{r4, lr}
  62              		.cfi_def_cfa_offset 8
  63              		.cfi_offset 4, -8
  64              		.cfi_offset 14, -4
  25:Blecommunicatie.c **** //    sprintf(strMsg1,"Commando bevat %d waarden\r", strlen(RB.valstr));
  26:Blecommunicatie.c **** //    puttyUart1_PutString(strMsg1);
  27:Blecommunicatie.c ****     //1ste waarde zijn de IR sensoren 2e waarde is een testgetal
  28:Blecommunicatie.c ****     
  29:Blecommunicatie.c ****     //voorbeeld I/FF/\r
  30:Blecommunicatie.c ****     if (RB.cmd == 'I')
  65              		.loc 1 30 0
  66 0002 104B     		ldr	r3, .L9
  67 0004 1B78     		ldrb	r3, [r3]	@ zero_extendqisi2
  68 0006 492B     		cmp	r3, #73
  69 0008 09D1     		bne	.L6
  31:Blecommunicatie.c ****     {  
  32:Blecommunicatie.c ****         IRWaarden = getCMDValue('/', RB.valstr);
  70              		.loc 1 32 0
  71 000a 0F49     		ldr	r1, .L9+4
  72 000c 2F20     		movs	r0, #47
  73 000e FFF7FEFF 		bl	getCMDValue
  74              	.LVL1:
  75 0012 0E4B     		ldr	r3, .L9+8
  76 0014 1870     		strb	r0, [r3]
  33:Blecommunicatie.c ****         //sprintf(strMsg1,"IRWaarde=%u\r", IRWaarden); 
  34:Blecommunicatie.c ****         puttyUart1_PutString(strMsg1);
  77              		.loc 1 34 0
  78 0016 0E48     		ldr	r0, .L9+12
  79 0018 FFF7FEFF 		bl	puttyUart1_PutString
  80              	.LVL2:
ARM GAS  C:\Users\Jona\AppData\Local\Temp\ccs6tr5t.s 			page 3


  81 001c 10BD     		pop	{r4, pc}
  82              	.L6:
  35:Blecommunicatie.c **** 
  36:Blecommunicatie.c ****     } 
  37:Blecommunicatie.c ****     else if (RB.cmd == 'T')
  83              		.loc 1 37 0
  84 001e 542B     		cmp	r3, #84
  85 0020 0ED1     		bne	.L5
  38:Blecommunicatie.c ****     {
  39:Blecommunicatie.c ****         TestGetal = getCMDValue('/', RB.valstr);
  86              		.loc 1 39 0
  87 0022 0949     		ldr	r1, .L9+4
  88 0024 2F20     		movs	r0, #47
  89 0026 FFF7FEFF 		bl	getCMDValue
  90              	.LVL3:
  91 002a 0246     		mov	r2, r0
  92 002c 094B     		ldr	r3, .L9+16
  93 002e 1870     		strb	r0, [r3]
  40:Blecommunicatie.c ****         sprintf(strMsg1,"TestGetal=%u\r", TestGetal); 
  94              		.loc 1 40 0
  95 0030 074C     		ldr	r4, .L9+12
  96 0032 0949     		ldr	r1, .L9+20
  97 0034 2046     		mov	r0, r4
  98 0036 FFF7FEFF 		bl	sprintf
  99              	.LVL4:
  41:Blecommunicatie.c ****         puttyUart1_PutString(strMsg1);
 100              		.loc 1 41 0
 101 003a 2046     		mov	r0, r4
 102 003c FFF7FEFF 		bl	puttyUart1_PutString
 103              	.LVL5:
 104              	.L5:
 105 0040 10BD     		pop	{r4, pc}
 106              	.L10:
 107 0042 00BF     		.align	2
 108              	.L9:
 109 0044 00000000 		.word	RB
 110 0048 01000000 		.word	RB+1
 111 004c 00000000 		.word	IRWaarden
 112 0050 00000000 		.word	strMsg1
 113 0054 00000000 		.word	TestGetal
 114 0058 00000000 		.word	.LC0
 115              		.cfi_endproc
 116              	.LFE65:
 117              		.size	ProcessCommandMsg, .-ProcessCommandMsg
 118              		.comm	RB,20,4
 119              		.comm	TestGetal,1,1
 120              		.comm	IRWaarden,1,1
 121              		.comm	motorStatus,1,1
 122              		.comm	valueY,1,1
 123              		.comm	valueX,1,1
 124              		.comm	strMsg1,64,4
 125              		.comm	hexaDecBuffer,2,4
 126              		.section	.rodata.str1.4,"aMS",%progbits,1
 127              		.align	2
 128              	.LC0:
 129 0000 54657374 		.ascii	"TestGetal=%u\015\000"
 129      47657461 
ARM GAS  C:\Users\Jona\AppData\Local\Temp\ccs6tr5t.s 			page 4


 129      6C3D2575 
 129      0D00
 130              		.text
 131              	.Letext0:
 132              		.file 2 "c:\\program files (x86)\\cypress\\psoc creator\\4.1\\psoc creator\\import\\gnu\\arm\\5.4.
 133              		.file 3 "c:\\program files (x86)\\cypress\\psoc creator\\4.1\\psoc creator\\import\\gnu\\arm\\5.4.
 134              		.file 4 "Generated_Source\\PSoC5/cytypes.h"
 135              		.file 5 "projectMain.h"
 136              		.file 6 "Generated_Source\\PSoC5/core_cm3.h"
 137              		.file 7 "Generated_Source\\PSoC5/puttyUart1.h"
 138              		.file 8 "c:\\program files (x86)\\cypress\\psoc creator\\4.1\\psoc creator\\import\\gnu\\arm\\5.4.
 139              		.file 9 "./myUART.h"