ARM GAS  C:\Users\BASILE~1.BER\AppData\Local\Temp\ccakyL0Q.s 			page 1


   1              		.syntax unified
   2              		.cpu cortex-m3
   3              		.fpu softvfp
   4              		.eabi_attribute 20, 1
   5              		.eabi_attribute 21, 1
   6              		.eabi_attribute 23, 3
   7              		.eabi_attribute 24, 1
   8              		.eabi_attribute 25, 1
   9              		.eabi_attribute 26, 1
  10              		.eabi_attribute 30, 1
  11              		.eabi_attribute 34, 1
  12              		.eabi_attribute 18, 4
  13              		.thumb
  14              		.syntax unified
  15              		.file	"main.c"
  16              		.text
  17              	.Ltext0:
  18              		.cfi_sections	.debug_frame
  19              		.section	.text.dataBinnenPutty,"ax",%progbits
  20              		.align	2
  21              		.global	dataBinnenPutty
  22              		.thumb
  23              		.thumb_func
  24              		.type	dataBinnenPutty, %function
  25              	dataBinnenPutty:
  26              	.LFB63:
  27              		.file 1 "main.c"
   1:main.c        **** /* ========================================
   2:main.c        ****  *
   3:main.c        ****  * Copyright YOUR COMPANY, THE YEAR
   4:main.c        ****  * All Rights Reserved
   5:main.c        ****  * UNPUBLISHED, LICENSED SOFTWARE.
   6:main.c        ****  *
   7:main.c        ****  * CONFIDENTIAL AND PROPRIETARY INFORMATION
   8:main.c        ****  * WHICH IS THE PROPERTY OF your company.
   9:main.c        ****  *
  10:main.c        ****  * ========================================
  11:main.c        **** */
  12:main.c        **** #include "project.h"
  13:main.c        **** 
  14:main.c        **** 
  15:main.c        **** CY_ISR(dataBinnenPutty)
  16:main.c        **** {
  28              		.loc 1 16 0
  29              		.cfi_startproc
  30              		@ args = 0, pretend = 0, frame = 0
  31              		@ frame_needed = 0, uses_anonymous_args = 0
  32 0000 08B5     		push	{r3, lr}
  33              		.cfi_def_cfa_offset 8
  34              		.cfi_offset 3, -8
  35              		.cfi_offset 14, -4
  17:main.c        ****     char charBinnen = puttyUart1_GetChar();
  36              		.loc 1 17 0
  37 0002 FFF7FEFF 		bl	puttyUart1_GetChar
  38              	.LVL0:
  18:main.c        ****     puttyUart1_PutChar(charBinnen);
  39              		.loc 1 18 0
ARM GAS  C:\Users\BASILE~1.BER\AppData\Local\Temp\ccakyL0Q.s 			page 2


  40 0006 FFF7FEFF 		bl	puttyUart1_PutChar
  41              	.LVL1:
  19:main.c        ****     
  20:main.c        ****     bleUart1_PutString("AT");
  42              		.loc 1 20 0
  43 000a 0248     		ldr	r0, .L3
  44 000c FFF7FEFF 		bl	bleUart1_PutString
  45              	.LVL2:
  46 0010 08BD     		pop	{r3, pc}
  47              	.L4:
  48 0012 00BF     		.align	2
  49              	.L3:
  50 0014 00000000 		.word	.LC0
  51              		.cfi_endproc
  52              	.LFE63:
  53              		.size	dataBinnenPutty, .-dataBinnenPutty
  54              		.section	.text.bleAntwoord,"ax",%progbits
  55              		.align	2
  56              		.global	bleAntwoord
  57              		.thumb
  58              		.thumb_func
  59              		.type	bleAntwoord, %function
  60              	bleAntwoord:
  61              	.LFB64:
  21:main.c        **** }
  22:main.c        **** 
  23:main.c        **** CY_ISR(bleAntwoord)
  24:main.c        **** {
  62              		.loc 1 24 0
  63              		.cfi_startproc
  64              		@ args = 0, pretend = 0, frame = 0
  65              		@ frame_needed = 0, uses_anonymous_args = 0
  66 0000 08B5     		push	{r3, lr}
  67              		.cfi_def_cfa_offset 8
  68              		.cfi_offset 3, -8
  69              		.cfi_offset 14, -4
  25:main.c        ****     char charBinnen = bleUart1_GetChar();
  70              		.loc 1 25 0
  71 0002 FFF7FEFF 		bl	bleUart1_GetChar
  72              	.LVL3:
  26:main.c        ****     puttyUart1_PutChar(charBinnen);
  73              		.loc 1 26 0
  74 0006 FFF7FEFF 		bl	puttyUart1_PutChar
  75              	.LVL4:
  76 000a 08BD     		pop	{r3, pc}
  77              		.cfi_endproc
  78              	.LFE64:
  79              		.size	bleAntwoord, .-bleAntwoord
  80              		.section	.text.main,"ax",%progbits
  81              		.align	2
  82              		.global	main
  83              		.thumb
  84              		.thumb_func
  85              		.type	main, %function
  86              	main:
  87              	.LFB65:
  27:main.c        **** }
ARM GAS  C:\Users\BASILE~1.BER\AppData\Local\Temp\ccakyL0Q.s 			page 3


  28:main.c        **** 
  29:main.c        **** int main(void)
  30:main.c        **** {
  88              		.loc 1 30 0
  89              		.cfi_startproc
  90              		@ Volatile: function does not return.
  91              		@ args = 0, pretend = 0, frame = 0
  92              		@ frame_needed = 0, uses_anonymous_args = 0
  93 0000 08B5     		push	{r3, lr}
  94              		.cfi_def_cfa_offset 8
  95              		.cfi_offset 3, -8
  96              		.cfi_offset 14, -4
  31:main.c        ****     CyGlobalIntEnable; /* Enable global interrupts. */
  97              		.loc 1 31 0
  98              		.syntax unified
  99              	@ 31 "main.c" 1
 100 0002 62B6     		CPSIE   i
 101              	@ 0 "" 2
  32:main.c        ****     rxPuttyISR_StartEx(dataBinnenPutty);
 102              		.loc 1 32 0
 103              		.thumb
 104              		.syntax unified
 105 0004 0748     		ldr	r0, .L10
 106 0006 FFF7FEFF 		bl	rxPuttyISR_StartEx
 107              	.LVL5:
  33:main.c        ****     
  34:main.c        ****     rxBleISR_StartEx(bleAntwoord);
 108              		.loc 1 34 0
 109 000a 0748     		ldr	r0, .L10+4
 110 000c FFF7FEFF 		bl	rxBleISR_StartEx
 111              	.LVL6:
  35:main.c        ****     
  36:main.c        ****     VDAC_Start();
 112              		.loc 1 36 0
 113 0010 FFF7FEFF 		bl	VDAC_Start
 114              	.LVL7:
  37:main.c        ****     Opamp_1_Start();
 115              		.loc 1 37 0
 116 0014 FFF7FEFF 		bl	Opamp_1_Start
 117              	.LVL8:
  38:main.c        ****     puttyUart1_Start();
 118              		.loc 1 38 0
 119 0018 FFF7FEFF 		bl	puttyUart1_Start
 120              	.LVL9:
  39:main.c        ****     bleUart1_Start();
 121              		.loc 1 39 0
 122 001c FFF7FEFF 		bl	bleUart1_Start
 123              	.LVL10:
 124              	.L8:
 125 0020 FEE7     		b	.L8
 126              	.L11:
 127 0022 00BF     		.align	2
 128              	.L10:
 129 0024 00000000 		.word	dataBinnenPutty
 130 0028 00000000 		.word	bleAntwoord
 131              		.cfi_endproc
 132              	.LFE65:
ARM GAS  C:\Users\BASILE~1.BER\AppData\Local\Temp\ccakyL0Q.s 			page 4


 133              		.size	main, .-main
 134              		.section	.rodata.str1.4,"aMS",%progbits,1
 135              		.align	2
 136              	.LC0:
 137 0000 415400   		.ascii	"AT\000"
 138              		.text
 139              	.Letext0:
 140              		.file 2 "c:\\program files (x86)\\cypress\\psoc creator\\4.1\\psoc creator\\import\\gnu\\arm\\5.4.
 141              		.file 3 "c:\\program files (x86)\\cypress\\psoc creator\\4.1\\psoc creator\\import\\gnu\\arm\\5.4.
 142              		.file 4 "Generated_Source\\PSoC5/puttyUart1.h"
 143              		.file 5 "Generated_Source\\PSoC5/bleUart1.h"
 144              		.file 6 "Generated_Source\\PSoC5/rxPuttyISR.h"
 145              		.file 7 "Generated_Source\\PSoC5/rxBleISR.h"
 146              		.file 8 "Generated_Source\\PSoC5/VDAC.h"
 147              		.file 9 "Generated_Source\\PSoC5/Opamp_1.h"
 148              		.file 10 "Generated_Source\\PSoC5/core_cm3.h"