ARM GAS  C:\Users\BASILE~1.BER\AppData\Local\Temp\ccYlr5VU.s 			page 1


   1              		.syntax unified
   2              		.cpu cortex-m3
   3              		.fpu softvfp
   4              		.eabi_attribute 20, 1
   5              		.eabi_attribute 21, 1
   6              		.eabi_attribute 23, 3
   7              		.eabi_attribute 24, 1
   8              		.eabi_attribute 25, 1
   9              		.eabi_attribute 26, 1
  10              		.eabi_attribute 30, 1
  11              		.eabi_attribute 34, 1
  12              		.eabi_attribute 18, 4
  13              		.thumb
  14              		.syntax unified
  15              		.file	"main.c"
  16              		.text
  17              	.Ltext0:
  18              		.cfi_sections	.debug_frame
  19              		.section	.text.initFirmwire,"ax",%progbits
  20              		.align	2
  21              		.global	initFirmwire
  22              		.thumb
  23              		.thumb_func
  24              		.type	initFirmwire, %function
  25              	initFirmwire:
  26              	.LFB64:
  27              		.file 1 "main.c"
   1:main.c        **** /* ========================================
   2:main.c        ****  *
   3:main.c        ****  * Copyright YOUR COMPANY, THE YEAR
   4:main.c        ****  * All Rights Reserved
   5:main.c        ****  * UNPUBLISHED, LICENSED SOFTWARE.
   6:main.c        ****  *
   7:main.c        ****  * CONFIDENTIAL AND PROPRIETARY INFORMATION
   8:main.c        ****  * WHICH IS THE PROPERTY OF your company.
   9:main.c        ****  *
  10:main.c        ****  * ========================================
  11:main.c        **** */
  12:main.c        **** 
  13:main.c        **** #include "projectMain.h"
  14:main.c        **** #include "project.h"
  15:main.c        **** #include <string.h>
  16:main.c        **** //#include <stdlib.h> //atoi
  17:main.c        **** #include <stdio.h> 
  18:main.c        **** #include <myUART.h>
  19:main.c        **** 
  20:main.c        **** 
  21:main.c        **** 
  22:main.c        **** //CY_ISR(TestIRFilter)
  23:main.c        **** //{
  24:main.c        **** //    LCD_ClearDisplay();
  25:main.c        **** //    uint8 testGetal = 0b01001100;
  26:main.c        **** //    AnalyseerData(testGetal);
  27:main.c        **** //    
  28:main.c        **** //    //printBINopLCD(TestGetal, 1);
  29:main.c        **** //    
  30:main.c        **** //}
ARM GAS  C:\Users\BASILE~1.BER\AppData\Local\Temp\ccYlr5VU.s 			page 2


  31:main.c        **** 
  32:main.c        **** 
  33:main.c        **** //Start alle firmwire blokken
  34:main.c        **** void initFirmwire()
  35:main.c        **** {
  28              		.loc 1 35 0
  29              		.cfi_startproc
  30              		@ args = 0, pretend = 0, frame = 0
  31              		@ frame_needed = 0, uses_anonymous_args = 0
  32 0000 08B5     		push	{r3, lr}
  33              		.cfi_def_cfa_offset 8
  34              		.cfi_offset 3, -8
  35              		.cfi_offset 14, -4
  36:main.c        **** 	ADC_IR_Start();
  36              		.loc 1 36 0
  37 0002 FFF7FEFF 		bl	ADC_IR_Start
  38              	.LVL0:
  37:main.c        **** 	ADC_IR_StartConvert();
  39              		.loc 1 37 0
  40 0006 FFF7FEFF 		bl	ADC_IR_StartConvert
  41              	.LVL1:
  38:main.c        ****     
  39:main.c        **** 	LCD_Start(); 
  42              		.loc 1 39 0
  43 000a FFF7FEFF 		bl	LCD_Start
  44              	.LVL2:
  40:main.c        **** 	
  41:main.c        **** 	MotorControl_Start();
  45              		.loc 1 41 0
  46 000e FFF7FEFF 		bl	MotorControl_Start
  47              	.LVL3:
  42:main.c        **** 	
  43:main.c        **** 	TimerUS_Start();
  48              		.loc 1 43 0
  49 0012 FFF7FEFF 		bl	TimerUS_Start
  50              	.LVL4:
  44:main.c        **** 
  45:main.c        ****     
  46:main.c        ****     pwmMotorLinks = 0; 
  51              		.loc 1 46 0
  52 0016 0023     		movs	r3, #0
  53 0018 024A     		ldr	r2, .L3
  54 001a 1370     		strb	r3, [r2]
  47:main.c        ****     pwmMotorRechts = 0; 
  55              		.loc 1 47 0
  56 001c 024A     		ldr	r2, .L3+4
  57 001e 1370     		strb	r3, [r2]
  58 0020 08BD     		pop	{r3, pc}
  59              	.L4:
  60 0022 00BF     		.align	2
  61              	.L3:
  62 0024 00000000 		.word	pwmMotorLinks
  63 0028 00000000 		.word	pwmMotorRechts
  64              		.cfi_endproc
  65              	.LFE64:
  66              		.size	initFirmwire, .-initFirmwire
  67              		.section	.text.telTot,"ax",%progbits
ARM GAS  C:\Users\BASILE~1.BER\AppData\Local\Temp\ccYlr5VU.s 			page 3


  68              		.align	2
  69              		.global	telTot
  70              		.thumb
  71              		.thumb_func
  72              		.type	telTot, %function
  73              	telTot:
  74              	.LFB66:
  48:main.c        **** } 
  49:main.c        **** 
  50:main.c        **** int main(void)
  51:main.c        **** {
  52:main.c        ****     CyGlobalIntEnable; /* Enable global interrupts. */
  53:main.c        ****     //drempelwaarde van de IR sensoren
  54:main.c        ****     IRDrempel = 100;
  55:main.c        **** 
  56:main.c        **** 	initFirmwire();
  57:main.c        **** 	
  58:main.c        **** 	//Interrupts
  59:main.c        **** 	readIRSensors_StartEx(IRSensoren);
  60:main.c        **** 	//______EnMotorISR_StartEx(TestIRFilter);
  61:main.c        **** 	
  62:main.c        ****     //schakel motoren uit 
  63:main.c        **** 	MotorControl_WriteCompare1(0);
  64:main.c        **** 	MotorControl_WriteCompare2(0);
  65:main.c        **** 	ENA_Write(0);
  66:main.c        **** 	ENB_Write(0);
  67:main.c        **** 	
  68:main.c        ****    
  69:main.c        **** 	while(SW1_Read() == 1) 
  70:main.c        **** 	{
  71:main.c        **** 
  72:main.c        **** 	} 
  73:main.c        ****     
  74:main.c        **** 	MotorControl_WriteCompare1(pwmMotorLinks);
  75:main.c        **** 	MotorControl_WriteCompare2(pwmMotorRechts);
  76:main.c        ****     //start de 5 LED Procedure
  77:main.c        **** 	telProcedure();
  78:main.c        ****     ENA_Write(1);
  79:main.c        **** 	ENB_Write(1);
  80:main.c        ****     
  81:main.c        ****     //Clear lcd zodat nieuwe waarden er op passen 
  82:main.c        ****     
  83:main.c        ****     //Loop
  84:main.c        **** 	for(;;)
  85:main.c        **** 	{ 
  86:main.c        **** 		//US deel
  87:main.c        **** 		//===================================================================
  88:main.c        **** 		//Teller die door de mux loopt
  89:main.c        **** 		//selectUS = telTot(selectUS, 0, 2); //PAS DIT AAN INDIEN NIET ALE US SENSOREN ZIJN AANGESLOTEN!!
  90:main.c        **** 		//selectUS_Write(selectUS);
  91:main.c        **** 		
  92:main.c        **** 		//vraag afstand aan 1 van de 3 us sensoren
  93:main.c        **** 	    // uint16 counterValue = readUSValue();
  94:main.c        **** 		//schuif uitkomst timer in juiste array
  95:main.c        **** 		//if (selectUS == 0) schuifRegister(avgUS1, counterValue);
  96:main.c        **** 		//else if (selectUS == 1) schuifRegister(avgUS2, counterValue);
  97:main.c        **** 		//else if (selectUS == 2) schuifRegister(avgUS3, counterValue);
ARM GAS  C:\Users\BASILE~1.BER\AppData\Local\Temp\ccYlr5VU.s 			page 4


  98:main.c        **** 		
  99:main.c        **** 		//berekenen van de mediaan
 100:main.c        ****         
 101:main.c        ****         
 102:main.c        ****         //Motoren met joystick
 103:main.c        ****         //LCD_Position(0u,0u);
 104:main.c        ****         //LCD_PrintInt16(pwmMotorLinks);
 105:main.c        ****         //LCD_Position(1u,0u);
 106:main.c        ****         //LCD_PrintInt16(pwmMotorRechts);
 107:main.c        ****         
 108:main.c        **** 	    //CyDelay(10);
 109:main.c        **** 		//motordeel
 110:main.c        **** 		//===================================================================
 111:main.c        ****         
 112:main.c        ****         AnalyseerData(IRWaarden);
 113:main.c        ****       
 114:main.c        ****         //Pas snelheid motoren aan
 115:main.c        **** 		MotorControl_WriteCompare1(pwmMotorLinks);
 116:main.c        ****         MotorControl_WriteCompare2(pwmMotorRechts);
 117:main.c        **** 	}
 118:main.c        **** }
 119:main.c        **** 
 120:main.c        **** 
 121:main.c        **** //methode die van min tot max telt en de huidige tel waarde terug geeft
 122:main.c        **** uint8 telTot(uint8 getal, uint8 min, uint8 max)
 123:main.c        **** {
  75              		.loc 1 123 0
  76              		.cfi_startproc
  77              		@ args = 0, pretend = 0, frame = 0
  78              		@ frame_needed = 0, uses_anonymous_args = 0
  79              		@ link register save eliminated.
  80              	.LVL5:
 124:main.c        ****    if (getal >= min && getal <= max - 1)
  81              		.loc 1 124 0
  82 0000 8842     		cmp	r0, r1
  83 0002 05D3     		bcc	.L7
  84              		.loc 1 124 0 is_stmt 0 discriminator 1
  85 0004 013A     		subs	r2, r2, #1
  86              	.LVL6:
  87 0006 9042     		cmp	r0, r2
  88 0008 04DC     		bgt	.L8
 125:main.c        **** 		{
 126:main.c        **** 	        getal++;
  89              		.loc 1 126 0 is_stmt 1
  90 000a 411C     		adds	r1, r0, #1
  91              	.LVL7:
  92 000c C8B2     		uxtb	r0, r1
  93              	.LVL8:
  94 000e 7047     		bx	lr
  95              	.LVL9:
  96              	.L7:
 127:main.c        **** 		}   
 128:main.c        ****         else getal = min; 
  97              		.loc 1 128 0
  98 0010 0846     		mov	r0, r1
  99              	.LVL10:
 100 0012 7047     		bx	lr
ARM GAS  C:\Users\BASILE~1.BER\AppData\Local\Temp\ccYlr5VU.s 			page 5


 101              	.LVL11:
 102              	.L8:
 103 0014 0846     		mov	r0, r1
 104              	.LVL12:
 129:main.c        ****    return getal;
 130:main.c        **** }
 105              		.loc 1 130 0
 106 0016 7047     		bx	lr
 107              		.cfi_endproc
 108              	.LFE66:
 109              		.size	telTot, .-telTot
 110              		.section	.text.telProcedure,"ax",%progbits
 111              		.align	2
 112              		.global	telProcedure
 113              		.thumb
 114              		.thumb_func
 115              		.type	telProcedure, %function
 116              	telProcedure:
 117              	.LFB68:
 131:main.c        **** 
 132:main.c        **** //methode die een binair getal op de LCD print
 133:main.c        **** void printBINopLCD(uint8 value, int row)
 134:main.c        **** {
 135:main.c        **** 	for(int i = 0; i < 8; i++)
 136:main.c        **** 	{
 137:main.c        **** 		LCD_Position(row,i);
 138:main.c        **** 		uint8 tmpWaarde =  exponent(2,i);
 139:main.c        **** 		if ((value & tmpWaarde) == tmpWaarde)
 140:main.c        **** 		{
 141:main.c        **** 			LCD_PrintDecUint16(1);
 142:main.c        **** 		}
 143:main.c        **** 			else 
 144:main.c        **** 		{
 145:main.c        **** 			LCD_PrintDecUint16(0);
 146:main.c        **** 		}  
 147:main.c        **** 	 }  
 148:main.c        **** }
 149:main.c        **** 
 150:main.c        **** //methode met delays om af te tellen
 151:main.c        **** void telProcedure(void)
 152:main.c        **** {
 118              		.loc 1 152 0
 119              		.cfi_startproc
 120              		@ args = 0, pretend = 0, frame = 0
 121              		@ frame_needed = 0, uses_anonymous_args = 0
 122 0000 08B5     		push	{r3, lr}
 123              		.cfi_def_cfa_offset 8
 124              		.cfi_offset 3, -8
 125              		.cfi_offset 14, -4
 153:main.c        ****     CyDelay(1000);
 126              		.loc 1 153 0
 127 0002 4FF47A70 		mov	r0, #1000
 128 0006 FFF7FEFF 		bl	CyDelay
 129              	.LVL13:
 154:main.c        **** 	LED1_Write(1);
 130              		.loc 1 154 0
 131 000a 0120     		movs	r0, #1
ARM GAS  C:\Users\BASILE~1.BER\AppData\Local\Temp\ccYlr5VU.s 			page 6


 132 000c FFF7FEFF 		bl	LED1_Write
 133              	.LVL14:
 155:main.c        **** 	CyDelay(1000);
 134              		.loc 1 155 0
 135 0010 4FF47A70 		mov	r0, #1000
 136 0014 FFF7FEFF 		bl	CyDelay
 137              	.LVL15:
 156:main.c        **** 	LED2_Write(1);
 138              		.loc 1 156 0
 139 0018 0120     		movs	r0, #1
 140 001a FFF7FEFF 		bl	LED2_Write
 141              	.LVL16:
 157:main.c        **** 	CyDelay(1000);
 142              		.loc 1 157 0
 143 001e 4FF47A70 		mov	r0, #1000
 144 0022 FFF7FEFF 		bl	CyDelay
 145              	.LVL17:
 158:main.c        **** 	LED3_Write(1);
 146              		.loc 1 158 0
 147 0026 0120     		movs	r0, #1
 148 0028 FFF7FEFF 		bl	LED3_Write
 149              	.LVL18:
 159:main.c        **** 	CyDelay(1000);
 150              		.loc 1 159 0
 151 002c 4FF47A70 		mov	r0, #1000
 152 0030 FFF7FEFF 		bl	CyDelay
 153              	.LVL19:
 160:main.c        **** 	LED4_Write(1);
 154              		.loc 1 160 0
 155 0034 0120     		movs	r0, #1
 156 0036 FFF7FEFF 		bl	LED4_Write
 157              	.LVL20:
 161:main.c        **** 	CyDelay(1000);
 158              		.loc 1 161 0
 159 003a 4FF47A70 		mov	r0, #1000
 160 003e FFF7FEFF 		bl	CyDelay
 161              	.LVL21:
 162:main.c        **** 	LED5_Write(1);
 162              		.loc 1 162 0
 163 0042 0120     		movs	r0, #1
 164 0044 FFF7FEFF 		bl	LED5_Write
 165              	.LVL22:
 166 0048 08BD     		pop	{r3, pc}
 167              		.cfi_endproc
 168              	.LFE68:
 169              		.size	telProcedure, .-telProcedure
 170 004a 00BF     		.section	.text.main,"ax",%progbits
 171              		.align	2
 172              		.global	main
 173              		.thumb
 174              		.thumb_func
 175              		.type	main, %function
 176              	main:
 177              	.LFB65:
  51:main.c        ****     CyGlobalIntEnable; /* Enable global interrupts. */
 178              		.loc 1 51 0
 179              		.cfi_startproc
ARM GAS  C:\Users\BASILE~1.BER\AppData\Local\Temp\ccYlr5VU.s 			page 7


 180              		@ Volatile: function does not return.
 181              		@ args = 0, pretend = 0, frame = 0
 182              		@ frame_needed = 0, uses_anonymous_args = 0
 183 0000 08B5     		push	{r3, lr}
 184              		.cfi_def_cfa_offset 8
 185              		.cfi_offset 3, -8
 186              		.cfi_offset 14, -4
  52:main.c        ****     //drempelwaarde van de IR sensoren
 187              		.loc 1 52 0
 188              		.syntax unified
 189              	@ 52 "main.c" 1
 190 0002 62B6     		CPSIE   i
 191              	@ 0 "" 2
  54:main.c        **** 
 192              		.loc 1 54 0
 193              		.thumb
 194              		.syntax unified
 195 0004 6422     		movs	r2, #100
 196 0006 1A4B     		ldr	r3, .L15
 197 0008 1A70     		strb	r2, [r3]
  56:main.c        **** 	
 198              		.loc 1 56 0
 199 000a FFF7FEFF 		bl	initFirmwire
 200              	.LVL23:
  59:main.c        **** 	//______EnMotorISR_StartEx(TestIRFilter);
 201              		.loc 1 59 0
 202 000e 1948     		ldr	r0, .L15+4
 203 0010 FFF7FEFF 		bl	readIRSensors_StartEx
 204              	.LVL24:
  63:main.c        **** 	MotorControl_WriteCompare2(0);
 205              		.loc 1 63 0
 206 0014 0020     		movs	r0, #0
 207 0016 FFF7FEFF 		bl	MotorControl_WriteCompare1
 208              	.LVL25:
  64:main.c        **** 	ENA_Write(0);
 209              		.loc 1 64 0
 210 001a 0020     		movs	r0, #0
 211 001c FFF7FEFF 		bl	MotorControl_WriteCompare2
 212              	.LVL26:
  65:main.c        **** 	ENB_Write(0);
 213              		.loc 1 65 0
 214 0020 0020     		movs	r0, #0
 215 0022 FFF7FEFF 		bl	ENA_Write
 216              	.LVL27:
  66:main.c        **** 	
 217              		.loc 1 66 0
 218 0026 0020     		movs	r0, #0
 219 0028 FFF7FEFF 		bl	ENB_Write
 220              	.LVL28:
 221              	.L12:
  69:main.c        **** 	{
 222              		.loc 1 69 0 discriminator 1
 223 002c FFF7FEFF 		bl	SW1_Read
 224              	.LVL29:
 225 0030 0128     		cmp	r0, #1
 226 0032 FBD0     		beq	.L12
  74:main.c        **** 	MotorControl_WriteCompare2(pwmMotorRechts);
ARM GAS  C:\Users\BASILE~1.BER\AppData\Local\Temp\ccYlr5VU.s 			page 8


 227              		.loc 1 74 0
 228 0034 104B     		ldr	r3, .L15+8
 229 0036 1878     		ldrb	r0, [r3]	@ zero_extendqisi2
 230 0038 FFF7FEFF 		bl	MotorControl_WriteCompare1
 231              	.LVL30:
  75:main.c        ****     //start de 5 LED Procedure
 232              		.loc 1 75 0
 233 003c 0F4B     		ldr	r3, .L15+12
 234 003e 1878     		ldrb	r0, [r3]	@ zero_extendqisi2
 235 0040 FFF7FEFF 		bl	MotorControl_WriteCompare2
 236              	.LVL31:
  77:main.c        ****     ENA_Write(1);
 237              		.loc 1 77 0
 238 0044 FFF7FEFF 		bl	telProcedure
 239              	.LVL32:
  78:main.c        **** 	ENB_Write(1);
 240              		.loc 1 78 0
 241 0048 0120     		movs	r0, #1
 242 004a FFF7FEFF 		bl	ENA_Write
 243              	.LVL33:
  79:main.c        ****     
 244              		.loc 1 79 0
 245 004e 0120     		movs	r0, #1
 246 0050 FFF7FEFF 		bl	ENB_Write
 247              	.LVL34:
 248              	.L13:
 112:main.c        ****       
 249              		.loc 1 112 0 discriminator 1
 250 0054 0A4B     		ldr	r3, .L15+16
 251 0056 1878     		ldrb	r0, [r3]	@ zero_extendqisi2
 252 0058 FFF7FEFF 		bl	AnalyseerData
 253              	.LVL35:
 115:main.c        ****         MotorControl_WriteCompare2(pwmMotorRechts);
 254              		.loc 1 115 0 discriminator 1
 255 005c 064B     		ldr	r3, .L15+8
 256 005e 1878     		ldrb	r0, [r3]	@ zero_extendqisi2
 257 0060 FFF7FEFF 		bl	MotorControl_WriteCompare1
 258              	.LVL36:
 116:main.c        **** 	}
 259              		.loc 1 116 0 discriminator 1
 260 0064 054B     		ldr	r3, .L15+12
 261 0066 1878     		ldrb	r0, [r3]	@ zero_extendqisi2
 262 0068 FFF7FEFF 		bl	MotorControl_WriteCompare2
 263              	.LVL37:
 264 006c F2E7     		b	.L13
 265              	.L16:
 266 006e 00BF     		.align	2
 267              	.L15:
 268 0070 00000000 		.word	IRDrempel
 269 0074 00000000 		.word	IRSensoren
 270 0078 00000000 		.word	pwmMotorLinks
 271 007c 00000000 		.word	pwmMotorRechts
 272 0080 00000000 		.word	IRWaarden
 273              		.cfi_endproc
 274              	.LFE65:
 275              		.size	main, .-main
 276              		.section	.text.exponent,"ax",%progbits
ARM GAS  C:\Users\BASILE~1.BER\AppData\Local\Temp\ccYlr5VU.s 			page 9


 277              		.align	2
 278              		.global	exponent
 279              		.thumb
 280              		.thumb_func
 281              		.type	exponent, %function
 282              	exponent:
 283              	.LFB69:
 163:main.c        **** 	
 164:main.c        **** }
 165:main.c        **** 
 166:main.c        **** 
 167:main.c        **** //methode die een macht berekend
 168:main.c        **** int exponent(int grondgetal, int exponent)
 169:main.c        **** {
 284              		.loc 1 169 0
 285              		.cfi_startproc
 286              		@ args = 0, pretend = 0, frame = 0
 287              		@ frame_needed = 0, uses_anonymous_args = 0
 288              		@ link register save eliminated.
 289              	.LVL38:
 290 0000 0246     		mov	r2, r0
 291              	.LVL39:
 292              	.LBB2:
 170:main.c        **** 	uint8 tmpWaarde = 1;
 171:main.c        **** 	for (int i = 0; i < exponent ; i ++)
 293              		.loc 1 171 0
 294 0002 0023     		movs	r3, #0
 295              	.LBE2:
 170:main.c        **** 	uint8 tmpWaarde = 1;
 296              		.loc 1 170 0
 297 0004 0120     		movs	r0, #1
 298              	.LVL40:
 299              	.LBB3:
 300              		.loc 1 171 0
 301 0006 03E0     		b	.L18
 302              	.LVL41:
 303              	.L19:
 172:main.c        **** 	{
 173:main.c        **** 		tmpWaarde = tmpWaarde * grondgetal;
 304              		.loc 1 173 0 discriminator 3
 305 0008 02FB00F0 		mul	r0, r2, r0
 306              	.LVL42:
 307 000c C0B2     		uxtb	r0, r0
 308              	.LVL43:
 171:main.c        **** 	{
 309              		.loc 1 171 0 discriminator 3
 310 000e 0133     		adds	r3, r3, #1
 311              	.LVL44:
 312              	.L18:
 171:main.c        **** 	{
 313              		.loc 1 171 0 is_stmt 0 discriminator 1
 314 0010 8B42     		cmp	r3, r1
 315 0012 F9DB     		blt	.L19
 316              	.LBE3:
 174:main.c        **** 	}
 175:main.c        **** 	return tmpWaarde;
 176:main.c        **** }
ARM GAS  C:\Users\BASILE~1.BER\AppData\Local\Temp\ccYlr5VU.s 			page 10


 317              		.loc 1 176 0 is_stmt 1
 318 0014 7047     		bx	lr
 319              		.cfi_endproc
 320              	.LFE69:
 321              		.size	exponent, .-exponent
 322 0016 00BF     		.section	.text.printBINopLCD,"ax",%progbits
 323              		.align	2
 324              		.global	printBINopLCD
 325              		.thumb
 326              		.thumb_func
 327              		.type	printBINopLCD, %function
 328              	printBINopLCD:
 329              	.LFB67:
 134:main.c        **** 	for(int i = 0; i < 8; i++)
 330              		.loc 1 134 0
 331              		.cfi_startproc
 332              		@ args = 0, pretend = 0, frame = 0
 333              		@ frame_needed = 0, uses_anonymous_args = 0
 334              	.LVL45:
 335 0000 70B5     		push	{r4, r5, r6, lr}
 336              		.cfi_def_cfa_offset 16
 337              		.cfi_offset 4, -16
 338              		.cfi_offset 5, -12
 339              		.cfi_offset 6, -8
 340              		.cfi_offset 14, -4
 341 0002 0646     		mov	r6, r0
 342 0004 0D46     		mov	r5, r1
 343              	.LVL46:
 344              	.LBB4:
 135:main.c        **** 	{
 345              		.loc 1 135 0
 346 0006 0024     		movs	r4, #0
 347 0008 13E0     		b	.L21
 348              	.LVL47:
 349              	.L24:
 350              	.LBB5:
 137:main.c        **** 		uint8 tmpWaarde =  exponent(2,i);
 351              		.loc 1 137 0
 352 000a E1B2     		uxtb	r1, r4
 353 000c E8B2     		uxtb	r0, r5
 354 000e FFF7FEFF 		bl	LCD_Position
 355              	.LVL48:
 138:main.c        **** 		if ((value & tmpWaarde) == tmpWaarde)
 356              		.loc 1 138 0
 357 0012 2146     		mov	r1, r4
 358 0014 0220     		movs	r0, #2
 359 0016 FFF7FEFF 		bl	exponent
 360              	.LVL49:
 361 001a C0B2     		uxtb	r0, r0
 362              	.LVL50:
 139:main.c        **** 		{
 363              		.loc 1 139 0
 364 001c 30EA0603 		bics	r3, r0, r6
 365 0020 03D1     		bne	.L22
 141:main.c        **** 		}
 366              		.loc 1 141 0
 367 0022 0120     		movs	r0, #1
ARM GAS  C:\Users\BASILE~1.BER\AppData\Local\Temp\ccYlr5VU.s 			page 11


 368              	.LVL51:
 369 0024 FFF7FEFF 		bl	LCD_PrintU32Number
 370              	.LVL52:
 371 0028 02E0     		b	.L23
 372              	.LVL53:
 373              	.L22:
 145:main.c        **** 		}  
 374              		.loc 1 145 0
 375 002a 0020     		movs	r0, #0
 376              	.LVL54:
 377 002c FFF7FEFF 		bl	LCD_PrintU32Number
 378              	.LVL55:
 379              	.L23:
 380              	.LBE5:
 135:main.c        **** 	{
 381              		.loc 1 135 0 discriminator 2
 382 0030 0134     		adds	r4, r4, #1
 383              	.LVL56:
 384              	.L21:
 135:main.c        **** 	{
 385              		.loc 1 135 0 is_stmt 0 discriminator 1
 386 0032 072C     		cmp	r4, #7
 387 0034 E9DD     		ble	.L24
 388              	.LBE4:
 148:main.c        **** 
 389              		.loc 1 148 0 is_stmt 1
 390 0036 70BD     		pop	{r4, r5, r6, pc}
 391              		.cfi_endproc
 392              	.LFE67:
 393              		.size	printBINopLCD, .-printBINopLCD
 394              		.comm	RB,20,4
 395              		.comm	boolSelect,1,1
 396              		.comm	avgUS3,10,4
 397              		.comm	avgUS2,10,4
 398              		.comm	avgUS1,10,4
 399              		.comm	selectUS,1,1
 400              		.comm	mediaan,2,2
 401              		.comm	TestGetal,1,1
 402              		.comm	IRDrempel,1,1
 403              		.comm	IRWaarden,1,1
 404              		.comm	pwmMotorRechts,1,1
 405              		.comm	pwmMotorLinks,1,1
 406              		.text
 407              	.Letext0:
 408              		.file 2 "c:\\program files (x86)\\cypress\\psoc creator\\4.1\\psoc creator\\import\\gnu\\arm\\5.4.
 409              		.file 3 "c:\\program files (x86)\\cypress\\psoc creator\\4.1\\psoc creator\\import\\gnu\\arm\\5.4.
 410              		.file 4 "Generated_Source\\PSoC5/cytypes.h"
 411              		.file 5 "projectMain.h"
 412              		.file 6 "Generated_Source\\PSoC5/core_cm3.h"
 413              		.file 7 "Generated_Source\\PSoC5/ADC_IR.h"
 414              		.file 8 "Generated_Source\\PSoC5/LCD.h"
 415              		.file 9 "Generated_Source\\PSoC5/MotorControl.h"
 416              		.file 10 "Generated_Source\\PSoC5/TimerUS.h"
 417              		.file 11 "Generated_Source\\PSoC5/CyLib.h"
 418              		.file 12 "Generated_Source\\PSoC5/LED1.h"
 419              		.file 13 "Generated_Source\\PSoC5/LED2.h"
 420              		.file 14 "Generated_Source\\PSoC5/LED3.h"
ARM GAS  C:\Users\BASILE~1.BER\AppData\Local\Temp\ccYlr5VU.s 			page 12


 421              		.file 15 "Generated_Source\\PSoC5/LED4.h"
 422              		.file 16 "Generated_Source\\PSoC5/LED5.h"
 423              		.file 17 "Generated_Source\\PSoC5/readIRSensors.h"
 424              		.file 18 "Generated_Source\\PSoC5/ENA.h"
 425              		.file 19 "Generated_Source\\PSoC5/ENB.h"
 426              		.file 20 "Generated_Source\\PSoC5/SW1.h"
 427              		.file 21 "./myUART.h"