ARM GAS  C:\Users\BASILE~1.BER\AppData\Local\Temp\ccHVrrq2.s 			page 1


   1              		.syntax unified
   2              		.cpu cortex-m3
   3              		.fpu softvfp
   4              		.eabi_attribute 20, 1
   5              		.eabi_attribute 21, 1
   6              		.eabi_attribute 23, 3
   7              		.eabi_attribute 24, 1
   8              		.eabi_attribute 25, 1
   9              		.eabi_attribute 26, 1
  10              		.eabi_attribute 30, 1
  11              		.eabi_attribute 34, 1
  12              		.eabi_attribute 18, 4
  13              		.thumb
  14              		.syntax unified
  15              		.file	"RaceLogica.c"
  16              		.text
  17              	.Ltext0:
  18              		.cfi_sections	.debug_frame
  19              		.section	.text.bepaalLijnDikte,"ax",%progbits
  20              		.align	2
  21              		.global	bepaalLijnDikte
  22              		.thumb
  23              		.thumb_func
  24              		.type	bepaalLijnDikte, %function
  25              	bepaalLijnDikte:
  26              	.LFB64:
  27              		.file 1 "RaceLogica.c"
   1:RaceLogica.c  **** /* ========================================
   2:RaceLogica.c  ****  *
   3:RaceLogica.c  ****  * Copyright YOUR COMPANY, THE YEAR
   4:RaceLogica.c  ****  * All Rights Reserved
   5:RaceLogica.c  ****  * UNPUBLISHED, LICENSED SOFTWARE.
   6:RaceLogica.c  ****  *
   7:RaceLogica.c  ****  * CONFIDENTIAL AND PROPRIETARY INFORMATION
   8:RaceLogica.c  ****  * WHICH IS THE PROPERTY OF your company.
   9:RaceLogica.c  ****  *
  10:RaceLogica.c  ****  * ========================================
  11:RaceLogica.c  **** */
  12:RaceLogica.c  **** #include "projectMain.h"
  13:RaceLogica.c  **** #include "project.h"
  14:RaceLogica.c  **** 
  15:RaceLogica.c  **** uint8 IRsensorGewicht[] = {0,100,235,255,255,235,100,0};//{0,180,235,255,235,210,180,0};////{0,25,4
  16:RaceLogica.c  **** uint8 IRDigitaleWaarden[8];
  17:RaceLogica.c  **** 
  18:RaceLogica.c  **** uint8 TweedeLijnGedetecteerd = 0;
  19:RaceLogica.c  **** 
  20:RaceLogica.c  **** uint8 Data;
  21:RaceLogica.c  **** uint8 DataOrgineel;
  22:RaceLogica.c  **** 
  23:RaceLogica.c  **** void AnalyseerData(uint8 data)
  24:RaceLogica.c  **** {
  25:RaceLogica.c  ****     if ((data & 11000000) == 11000000 ) data = 0b10000000;
  26:RaceLogica.c  ****     else if ((data & 00000011) == 00000011 ) data = 0b00000001;
  27:RaceLogica.c  ****     DataOrgineel = data;
  28:RaceLogica.c  ****     PlaatsIRWaardenInArray(DataOrgineel);
  29:RaceLogica.c  ****     Data = CheckVoor2eLijn();
  30:RaceLogica.c  ****     //printBINopLCD(DataOrgineel, 0);
ARM GAS  C:\Users\BASILE~1.BER\AppData\Local\Temp\ccHVrrq2.s 			page 2


  31:RaceLogica.c  ****     //printBINopLCD(Data, 1);
  32:RaceLogica.c  ****     //if (Data != DataOrgineel) PlaatsIRWaardenInArray(Data);
  33:RaceLogica.c  ****     
  34:RaceLogica.c  ****     stuurMotorenBij();
  35:RaceLogica.c  **** }
  36:RaceLogica.c  **** 
  37:RaceLogica.c  **** uint8 bepaalLijnDikte()
  38:RaceLogica.c  **** {
  28              		.loc 1 38 0
  29              		.cfi_startproc
  30              		@ args = 0, pretend = 0, frame = 0
  31              		@ frame_needed = 0, uses_anonymous_args = 0
  32              		@ link register save eliminated.
  33              	.LVL0:
  34              	.LBB2:
  39:RaceLogica.c  ****     uint8 teller = 0;
  40:RaceLogica.c  ****     uint8 diksteLijn = 0;
  41:RaceLogica.c  ****     for(int i = 0; i < 8; i++)
  35              		.loc 1 41 0
  36 0000 0023     		movs	r3, #0
  37              	.LBE2:
  40:RaceLogica.c  ****     for(int i = 0; i < 8; i++)
  38              		.loc 1 40 0
  39 0002 1946     		mov	r1, r3
  39:RaceLogica.c  ****     uint8 teller = 0;
  40              		.loc 1 39 0
  41 0004 1846     		mov	r0, r3
  42              	.LBB3:
  43              		.loc 1 41 0
  44 0006 0BE0     		b	.L2
  45              	.LVL1:
  46              	.L5:
  42:RaceLogica.c  ****     {
  43:RaceLogica.c  ****         if (IRDigitaleWaarden[i] == 1) teller++;
  47              		.loc 1 43 0
  48 0008 084A     		ldr	r2, .L8
  49 000a D25C     		ldrb	r2, [r2, r3]	@ zero_extendqisi2
  50 000c 012A     		cmp	r2, #1
  51 000e 02D1     		bne	.L3
  52              		.loc 1 43 0 is_stmt 0 discriminator 1
  53 0010 0130     		adds	r0, r0, #1
  54              	.LVL2:
  55 0012 C0B2     		uxtb	r0, r0
  56              	.LVL3:
  57 0014 03E0     		b	.L4
  58              	.L3:
  44:RaceLogica.c  ****         else {
  45:RaceLogica.c  ****             if (teller > diksteLijn)
  59              		.loc 1 45 0 is_stmt 1
  60 0016 8842     		cmp	r0, r1
  61 0018 01D9     		bls	.L4
  46:RaceLogica.c  ****             {
  47:RaceLogica.c  ****                 diksteLijn = teller;
  62              		.loc 1 47 0
  63 001a 0146     		mov	r1, r0
  64              	.LVL4:
  48:RaceLogica.c  ****                 teller = 0;
ARM GAS  C:\Users\BASILE~1.BER\AppData\Local\Temp\ccHVrrq2.s 			page 3


  65              		.loc 1 48 0
  66 001c 0020     		movs	r0, #0
  67              	.LVL5:
  68              	.L4:
  41:RaceLogica.c  ****     {
  69              		.loc 1 41 0 discriminator 2
  70 001e 0133     		adds	r3, r3, #1
  71              	.LVL6:
  72              	.L2:
  41:RaceLogica.c  ****     {
  73              		.loc 1 41 0 is_stmt 0 discriminator 1
  74 0020 072B     		cmp	r3, #7
  75 0022 F1DD     		ble	.L5
  76              	.LBE3:
  49:RaceLogica.c  ****             } 
  50:RaceLogica.c  ****         }
  51:RaceLogica.c  ****      }
  52:RaceLogica.c  ****         
  53:RaceLogica.c  ****      if (teller > diksteLijn)diksteLijn = teller;
  77              		.loc 1 53 0 is_stmt 1
  78 0024 8842     		cmp	r0, r1
  79 0026 00D8     		bhi	.L6
  80 0028 0846     		mov	r0, r1
  81              	.LVL7:
  82              	.L6:
  54:RaceLogica.c  ****      return diksteLijn;
  55:RaceLogica.c  **** }
  83              		.loc 1 55 0
  84 002a 7047     		bx	lr
  85              	.L9:
  86              		.align	2
  87              	.L8:
  88 002c 00000000 		.word	IRDigitaleWaarden
  89              		.cfi_endproc
  90              	.LFE64:
  91              		.size	bepaalLijnDikte, .-bepaalLijnDikte
  92              		.section	.text.stuurMotorenBij,"ax",%progbits
  93              		.align	2
  94              		.global	stuurMotorenBij
  95              		.thumb
  96              		.thumb_func
  97              		.type	stuurMotorenBij, %function
  98              	stuurMotorenBij:
  99              	.LFB65:
  56:RaceLogica.c  **** 
  57:RaceLogica.c  **** void stuurMotorenBij(void)
  58:RaceLogica.c  **** { 
 100              		.loc 1 58 0
 101              		.cfi_startproc
 102              		@ args = 0, pretend = 0, frame = 0
 103              		@ frame_needed = 0, uses_anonymous_args = 0
 104              		@ link register save eliminated.
 105              	.LVL8:
 106              	.LBB4:
  59:RaceLogica.c  ****     for(int i = 3; i >= 0; i--) //linkse kant van de sensoren afgaan
 107              		.loc 1 59 0
 108 0000 0323     		movs	r3, #3
ARM GAS  C:\Users\BASILE~1.BER\AppData\Local\Temp\ccHVrrq2.s 			page 4


 109 0002 1FE0     		b	.L11
 110              	.LVL9:
 111              	.L17:
  60:RaceLogica.c  **** 	{
  61:RaceLogica.c  ****         if (IRDigitaleWaarden[i] == 1) //indien er een zwarte lijn is op de sensor
 112              		.loc 1 61 0
 113 0004 234A     		ldr	r2, .L25
 114 0006 D25C     		ldrb	r2, [r2, r3]	@ zero_extendqisi2
 115 0008 012A     		cmp	r2, #1
 116 000a 1AD1     		bne	.L12
  62:RaceLogica.c  ****         {
  63:RaceLogica.c  ****             pwmMotorLinks = IRsensorGewicht[i];
 117              		.loc 1 63 0
 118 000c 224A     		ldr	r2, .L25+4
 119 000e D15C     		ldrb	r1, [r2, r3]	@ zero_extendqisi2
 120 0010 224A     		ldr	r2, .L25+8
 121 0012 1170     		strb	r1, [r2]
  64:RaceLogica.c  ****             if (i == 0) pwmMotorRechts = 255;
 122              		.loc 1 64 0
 123 0014 1BB9     		cbnz	r3, .L13
 124              		.loc 1 64 0 is_stmt 0 discriminator 1
 125 0016 FF22     		movs	r2, #255
 126 0018 214B     		ldr	r3, .L25+12
 127              	.LVL10:
 128 001a 1A70     		strb	r2, [r3]
 129 001c 14E0     		b	.L14
 130              	.LVL11:
 131              	.L13:
  65:RaceLogica.c  ****             else if (i == 1) pwmMotorRechts = 240;
 132              		.loc 1 65 0 is_stmt 1
 133 001e 012B     		cmp	r3, #1
 134 0020 03D1     		bne	.L15
 135              		.loc 1 65 0 is_stmt 0 discriminator 1
 136 0022 F022     		movs	r2, #240
 137 0024 1E4B     		ldr	r3, .L25+12
 138              	.LVL12:
 139 0026 1A70     		strb	r2, [r3]
 140 0028 0EE0     		b	.L14
 141              	.LVL13:
 142              	.L15:
  66:RaceLogica.c  ****             else if (i == 2) pwmMotorRechts = 225;
 143              		.loc 1 66 0 is_stmt 1
 144 002a 022B     		cmp	r3, #2
 145 002c 03D1     		bne	.L16
 146              		.loc 1 66 0 is_stmt 0 discriminator 1
 147 002e E122     		movs	r2, #225
 148 0030 1B4B     		ldr	r3, .L25+12
 149              	.LVL14:
 150 0032 1A70     		strb	r2, [r3]
 151 0034 08E0     		b	.L14
 152              	.LVL15:
 153              	.L16:
  67:RaceLogica.c  ****             else if (i == 3) pwmMotorRechts = 255;//IRsensorGewicht[i];
 154              		.loc 1 67 0 is_stmt 1
 155 0036 032B     		cmp	r3, #3
 156 0038 06D1     		bne	.L14
 157              		.loc 1 67 0 is_stmt 0 discriminator 1
ARM GAS  C:\Users\BASILE~1.BER\AppData\Local\Temp\ccHVrrq2.s 			page 5


 158 003a FF22     		movs	r2, #255
 159 003c 184B     		ldr	r3, .L25+12
 160              	.LVL16:
 161 003e 1A70     		strb	r2, [r3]
 162 0040 02E0     		b	.L14
 163              	.LVL17:
 164              	.L12:
  59:RaceLogica.c  **** 	{
 165              		.loc 1 59 0 is_stmt 1 discriminator 2
 166 0042 013B     		subs	r3, r3, #1
 167              	.LVL18:
 168              	.L11:
  59:RaceLogica.c  **** 	{
 169              		.loc 1 59 0 is_stmt 0 discriminator 1
 170 0044 002B     		cmp	r3, #0
 171 0046 DDDA     		bge	.L17
 172              	.LVL19:
 173              	.L14:
 174              	.LBE4:
 175              	.LBB5:
  68:RaceLogica.c  ****             break;
  69:RaceLogica.c  ****         }
  70:RaceLogica.c  ****     }
  71:RaceLogica.c  ****     
  72:RaceLogica.c  ****     for(int i = 4; i <= 7; i++)
 176              		.loc 1 72 0 is_stmt 1
 177 0048 0423     		movs	r3, #4
 178 004a 20E0     		b	.L18
 179              	.LVL20:
 180              	.L24:
  73:RaceLogica.c  **** 	{
  74:RaceLogica.c  ****         if (IRDigitaleWaarden[i] == 1)
 181              		.loc 1 74 0
 182 004c 114A     		ldr	r2, .L25
 183 004e D25C     		ldrb	r2, [r2, r3]	@ zero_extendqisi2
 184 0050 012A     		cmp	r2, #1
 185 0052 1BD1     		bne	.L19
  75:RaceLogica.c  ****         {
  76:RaceLogica.c  ****             pwmMotorRechts = IRsensorGewicht[i];
 186              		.loc 1 76 0
 187 0054 104A     		ldr	r2, .L25+4
 188 0056 D15C     		ldrb	r1, [r2, r3]	@ zero_extendqisi2
 189 0058 114A     		ldr	r2, .L25+12
 190 005a 1170     		strb	r1, [r2]
  77:RaceLogica.c  ****             if (i == 7) pwmMotorLinks = 255;
 191              		.loc 1 77 0
 192 005c 072B     		cmp	r3, #7
 193 005e 03D1     		bne	.L20
 194              		.loc 1 77 0 is_stmt 0 discriminator 1
 195 0060 FF22     		movs	r2, #255
 196 0062 0E4B     		ldr	r3, .L25+8
 197              	.LVL21:
 198 0064 1A70     		strb	r2, [r3]
 199 0066 7047     		bx	lr
 200              	.LVL22:
 201              	.L20:
  78:RaceLogica.c  ****             else if (i == 6) pwmMotorLinks = 240;
ARM GAS  C:\Users\BASILE~1.BER\AppData\Local\Temp\ccHVrrq2.s 			page 6


 202              		.loc 1 78 0 is_stmt 1
 203 0068 062B     		cmp	r3, #6
 204 006a 03D1     		bne	.L22
 205              		.loc 1 78 0 is_stmt 0 discriminator 1
 206 006c F022     		movs	r2, #240
 207 006e 0B4B     		ldr	r3, .L25+8
 208              	.LVL23:
 209 0070 1A70     		strb	r2, [r3]
 210 0072 7047     		bx	lr
 211              	.LVL24:
 212              	.L22:
  79:RaceLogica.c  ****             else if (i == 5) pwmMotorLinks = 225;
 213              		.loc 1 79 0 is_stmt 1
 214 0074 052B     		cmp	r3, #5
 215 0076 03D1     		bne	.L23
 216              		.loc 1 79 0 is_stmt 0 discriminator 1
 217 0078 E122     		movs	r2, #225
 218 007a 084B     		ldr	r3, .L25+8
 219              	.LVL25:
 220 007c 1A70     		strb	r2, [r3]
 221 007e 7047     		bx	lr
 222              	.LVL26:
 223              	.L23:
  80:RaceLogica.c  ****             else if (i == 4) pwmMotorLinks = 255;
 224              		.loc 1 80 0 is_stmt 1
 225 0080 042B     		cmp	r3, #4
 226 0082 06D1     		bne	.L10
 227              		.loc 1 80 0 is_stmt 0 discriminator 1
 228 0084 FF22     		movs	r2, #255
 229 0086 054B     		ldr	r3, .L25+8
 230              	.LVL27:
 231 0088 1A70     		strb	r2, [r3]
 232 008a 7047     		bx	lr
 233              	.LVL28:
 234              	.L19:
  72:RaceLogica.c  **** 	{
 235              		.loc 1 72 0 is_stmt 1 discriminator 2
 236 008c 0133     		adds	r3, r3, #1
 237              	.LVL29:
 238              	.L18:
  72:RaceLogica.c  **** 	{
 239              		.loc 1 72 0 is_stmt 0 discriminator 1
 240 008e 072B     		cmp	r3, #7
 241 0090 DCDD     		ble	.L24
 242              	.L10:
 243 0092 7047     		bx	lr
 244              	.L26:
 245              		.align	2
 246              	.L25:
 247 0094 00000000 		.word	IRDigitaleWaarden
 248 0098 00000000 		.word	.LANCHOR0
 249 009c 00000000 		.word	pwmMotorLinks
 250 00a0 00000000 		.word	pwmMotorRechts
 251              	.LBE5:
 252              		.cfi_endproc
 253              	.LFE65:
 254              		.size	stuurMotorenBij, .-stuurMotorenBij
ARM GAS  C:\Users\BASILE~1.BER\AppData\Local\Temp\ccHVrrq2.s 			page 7


 255              		.section	.text.PlaatsIRWaardenInArray,"ax",%progbits
 256              		.align	2
 257              		.global	PlaatsIRWaardenInArray
 258              		.thumb
 259              		.thumb_func
 260              		.type	PlaatsIRWaardenInArray, %function
 261              	PlaatsIRWaardenInArray:
 262              	.LFB66:
  81:RaceLogica.c  ****             break;
  82:RaceLogica.c  ****         }
  83:RaceLogica.c  ****     }
  84:RaceLogica.c  **** }
  85:RaceLogica.c  **** 
  86:RaceLogica.c  **** void PlaatsIRWaardenInArray(uint8 value)
  87:RaceLogica.c  **** {
 263              		.loc 1 87 0 is_stmt 1
 264              		.cfi_startproc
 265              		@ args = 0, pretend = 0, frame = 0
 266              		@ frame_needed = 0, uses_anonymous_args = 0
 267              	.LVL30:
 268 0000 38B5     		push	{r3, r4, r5, lr}
 269              		.cfi_def_cfa_offset 16
 270              		.cfi_offset 3, -16
 271              		.cfi_offset 4, -12
 272              		.cfi_offset 5, -8
 273              		.cfi_offset 14, -4
 274 0002 0546     		mov	r5, r0
 275              	.LVL31:
 276              	.LBB6:
  88:RaceLogica.c  ****     for(int i = 0; i < 8; i++)
 277              		.loc 1 88 0
 278 0004 0024     		movs	r4, #0
 279 0006 0FE0     		b	.L28
 280              	.LVL32:
 281              	.L31:
 282              	.LBB7:
  89:RaceLogica.c  **** 	{
  90:RaceLogica.c  **** 		uint8 tmpWaarde =  exponent(2,i);
 283              		.loc 1 90 0
 284 0008 2146     		mov	r1, r4
 285 000a 0220     		movs	r0, #2
 286 000c FFF7FEFF 		bl	exponent
 287              	.LVL33:
 288 0010 C0B2     		uxtb	r0, r0
 289              	.LVL34:
  91:RaceLogica.c  **** 		if ((value & tmpWaarde) == tmpWaarde)
 290              		.loc 1 91 0
 291 0012 30EA0503 		bics	r3, r0, r5
 292 0016 03D1     		bne	.L29
  92:RaceLogica.c  **** 		{
  93:RaceLogica.c  **** 			IRDigitaleWaarden[i]= 1;
 293              		.loc 1 93 0
 294 0018 0122     		movs	r2, #1
 295 001a 054B     		ldr	r3, .L33
 296 001c 1A55     		strb	r2, [r3, r4]
 297 001e 02E0     		b	.L30
 298              	.L29:
ARM GAS  C:\Users\BASILE~1.BER\AppData\Local\Temp\ccHVrrq2.s 			page 8


  94:RaceLogica.c  **** 		}
  95:RaceLogica.c  **** 			else 
  96:RaceLogica.c  **** 		{
  97:RaceLogica.c  **** 			IRDigitaleWaarden[i]= 0;
 299              		.loc 1 97 0
 300 0020 0022     		movs	r2, #0
 301 0022 034B     		ldr	r3, .L33
 302 0024 1A55     		strb	r2, [r3, r4]
 303              	.L30:
 304              	.LBE7:
  88:RaceLogica.c  **** 	{
 305              		.loc 1 88 0 discriminator 2
 306 0026 0134     		adds	r4, r4, #1
 307              	.LVL35:
 308              	.L28:
  88:RaceLogica.c  **** 	{
 309              		.loc 1 88 0 is_stmt 0 discriminator 1
 310 0028 072C     		cmp	r4, #7
 311 002a EDDD     		ble	.L31
 312              	.LBE6:
  98:RaceLogica.c  **** 		}  
  99:RaceLogica.c  **** 	 }  
 100:RaceLogica.c  **** }
 313              		.loc 1 100 0 is_stmt 1
 314 002c 38BD     		pop	{r3, r4, r5, pc}
 315              	.LVL36:
 316              	.L34:
 317 002e 00BF     		.align	2
 318              	.L33:
 319 0030 00000000 		.word	IRDigitaleWaarden
 320              		.cfi_endproc
 321              	.LFE66:
 322              		.size	PlaatsIRWaardenInArray, .-PlaatsIRWaardenInArray
 323              		.section	.text.CheckVoor2eLijn,"ax",%progbits
 324              		.align	2
 325              		.global	CheckVoor2eLijn
 326              		.thumb
 327              		.thumb_func
 328              		.type	CheckVoor2eLijn, %function
 329              	CheckVoor2eLijn:
 330              	.LFB67:
 101:RaceLogica.c  **** 
 102:RaceLogica.c  **** uint8 CheckVoor2eLijn()
 103:RaceLogica.c  **** {
 331              		.loc 1 103 0
 332              		.cfi_startproc
 333              		@ args = 0, pretend = 0, frame = 0
 334              		@ frame_needed = 0, uses_anonymous_args = 0
 335 0000 70B5     		push	{r4, r5, r6, lr}
 336              		.cfi_def_cfa_offset 16
 337              		.cfi_offset 4, -16
 338              		.cfi_offset 5, -12
 339              		.cfi_offset 6, -8
 340              		.cfi_offset 14, -4
 341              	.LVL37:
 342              	.LBB8:
 104:RaceLogica.c  ****     uint8 diksteLijn = 0;
ARM GAS  C:\Users\BASILE~1.BER\AppData\Local\Temp\ccHVrrq2.s 			page 9


 105:RaceLogica.c  ****     uint8 teller = 0;
 106:RaceLogica.c  ****     
 107:RaceLogica.c  ****      uint8 laatsteWaarde = 0; 
 108:RaceLogica.c  ****      uint8 aantalWaardeWisselingen = 1;  
 109:RaceLogica.c  ****     
 110:RaceLogica.c  ****         for(int i = 0; i < 8; i++)
 343              		.loc 1 110 0
 344 0002 0023     		movs	r3, #0
 345              	.LBE8:
 108:RaceLogica.c  ****     
 346              		.loc 1 108 0
 347 0004 0124     		movs	r4, #1
 107:RaceLogica.c  ****      uint8 aantalWaardeWisselingen = 1;  
 348              		.loc 1 107 0
 349 0006 1846     		mov	r0, r3
 105:RaceLogica.c  ****     
 350              		.loc 1 105 0
 351 0008 1946     		mov	r1, r3
 104:RaceLogica.c  ****     uint8 teller = 0;
 352              		.loc 1 104 0
 353 000a 1E46     		mov	r6, r3
 354              	.LBB9:
 355              		.loc 1 110 0
 356 000c 10E0     		b	.L36
 357              	.LVL38:
 358              	.L40:
 111:RaceLogica.c  ****         {
 112:RaceLogica.c  ****             if (laatsteWaarde != IRDigitaleWaarden[i])
 359              		.loc 1 112 0
 360 000e 234A     		ldr	r2, .L50
 361 0010 D25C     		ldrb	r2, [r2, r3]	@ zero_extendqisi2
 362 0012 9042     		cmp	r0, r2
 363 0014 02D0     		beq	.L37
 113:RaceLogica.c  ****             {
 114:RaceLogica.c  ****                 aantalWaardeWisselingen++;
 364              		.loc 1 114 0
 365 0016 0134     		adds	r4, r4, #1
 366              	.LVL39:
 367 0018 E4B2     		uxtb	r4, r4
 368              	.LVL40:
 115:RaceLogica.c  ****                 laatsteWaarde = IRDigitaleWaarden[i];
 369              		.loc 1 115 0
 370 001a 1046     		mov	r0, r2
 371              	.LVL41:
 372              	.L37:
 116:RaceLogica.c  ****             } 
 117:RaceLogica.c  ****             if (IRDigitaleWaarden[i] == 1) teller++;
 373              		.loc 1 117 0
 374 001c 012A     		cmp	r2, #1
 375 001e 02D1     		bne	.L38
 376              		.loc 1 117 0 is_stmt 0 discriminator 1
 377 0020 0131     		adds	r1, r1, #1
 378              	.LVL42:
 379 0022 C9B2     		uxtb	r1, r1
 380              	.LVL43:
 381 0024 03E0     		b	.L39
 382              	.L38:
ARM GAS  C:\Users\BASILE~1.BER\AppData\Local\Temp\ccHVrrq2.s 			page 10


 118:RaceLogica.c  ****             else {
 119:RaceLogica.c  ****                 if (teller > diksteLijn)
 383              		.loc 1 119 0 is_stmt 1
 384 0026 8E42     		cmp	r6, r1
 385 0028 01D2     		bcs	.L39
 120:RaceLogica.c  ****                 {
 121:RaceLogica.c  ****                     diksteLijn = teller;
 386              		.loc 1 121 0
 387 002a 0E46     		mov	r6, r1
 388              	.LVL44:
 122:RaceLogica.c  ****                     teller = 0;
 389              		.loc 1 122 0
 390 002c 0021     		movs	r1, #0
 391              	.LVL45:
 392              	.L39:
 110:RaceLogica.c  ****         {
 393              		.loc 1 110 0 discriminator 2
 394 002e 0133     		adds	r3, r3, #1
 395              	.LVL46:
 396              	.L36:
 110:RaceLogica.c  ****         {
 397              		.loc 1 110 0 is_stmt 0 discriminator 1
 398 0030 072B     		cmp	r3, #7
 399 0032 ECDD     		ble	.L40
 400              	.LBE9:
 123:RaceLogica.c  ****                 } 
 124:RaceLogica.c  ****             }
 125:RaceLogica.c  ****         }
 126:RaceLogica.c  ****         
 127:RaceLogica.c  ****         LCD_Position(0u,10u);
 401              		.loc 1 127 0 is_stmt 1
 402 0034 0A21     		movs	r1, #10
 403              	.LVL47:
 404 0036 0020     		movs	r0, #0
 405              	.LVL48:
 406 0038 FFF7FEFF 		bl	LCD_Position
 407              	.LVL49:
 128:RaceLogica.c  ****         LCD_PrintInt16(aantalWaardeWisselingen);  
 408              		.loc 1 128 0
 409 003c 2046     		mov	r0, r4
 410 003e FFF7FEFF 		bl	LCD_PrintInt16
 411              	.LVL50:
 129:RaceLogica.c  ****          LCD_Position(1u,10u);
 412              		.loc 1 129 0
 413 0042 0A21     		movs	r1, #10
 414 0044 0120     		movs	r0, #1
 415 0046 FFF7FEFF 		bl	LCD_Position
 416              	.LVL51:
 130:RaceLogica.c  ****         LCD_PrintInt16(diksteLijn);  
 417              		.loc 1 130 0
 418 004a B0B2     		uxth	r0, r6
 419 004c FFF7FEFF 		bl	LCD_PrintInt16
 420              	.LVL52:
 131:RaceLogica.c  ****         if (aantalWaardeWisselingen <= 3)
 421              		.loc 1 131 0
 422 0050 032C     		cmp	r4, #3
 423 0052 0AD8     		bhi	.L47
ARM GAS  C:\Users\BASILE~1.BER\AppData\Local\Temp\ccHVrrq2.s 			page 11


 132:RaceLogica.c  ****         {
 133:RaceLogica.c  ****             return Data;
 424              		.loc 1 133 0
 425 0054 124B     		ldr	r3, .L50+4
 426 0056 1878     		ldrb	r0, [r3]	@ zero_extendqisi2
 427 0058 70BD     		pop	{r4, r5, r6, pc}
 428              	.LVL53:
 429              	.L43:
 430              	.LBB10:
 431              	.LBB11:
 134:RaceLogica.c  ****         }
 135:RaceLogica.c  ****         else
 136:RaceLogica.c  ****         {
 137:RaceLogica.c  ****             uint8 compareValue = 1;
 138:RaceLogica.c  ****             
 139:RaceLogica.c  ****             for (int i = 0; i < diksteLijn; i++)
 140:RaceLogica.c  ****             {
 141:RaceLogica.c  ****                 compareValue = compareValue | exponent(2,i);
 432              		.loc 1 141 0 discriminator 3
 433 005a 2946     		mov	r1, r5
 434 005c 0220     		movs	r0, #2
 435 005e FFF7FEFF 		bl	exponent
 436              	.LVL54:
 437 0062 2043     		orrs	r0, r0, r4
 438 0064 C4B2     		uxtb	r4, r0
 439              	.LVL55:
 139:RaceLogica.c  ****             {
 440              		.loc 1 139 0 discriminator 3
 441 0066 0135     		adds	r5, r5, #1
 442              	.LVL56:
 443 0068 01E0     		b	.L41
 444              	.LVL57:
 445              	.L47:
 446              	.LBE11:
 447              	.LBE10:
 448 006a 0025     		movs	r5, #0
 449 006c 0124     		movs	r4, #1
 450              	.LVL58:
 451              	.L41:
 452              	.LBB17:
 453              	.LBB12:
 139:RaceLogica.c  ****             {
 454              		.loc 1 139 0 is_stmt 0 discriminator 1
 455 006e 3146     		mov	r1, r6
 456 0070 B542     		cmp	r5, r6
 457 0072 F2DB     		blt	.L43
 458 0074 0023     		movs	r3, #0
 459 0076 08E0     		b	.L44
 460              	.LVL59:
 461              	.L45:
 462              	.LBE12:
 463              	.LBB13:
 464              	.LBB14:
 142:RaceLogica.c  ****             }
 143:RaceLogica.c  ****             for (uint8 i = 0; i < (8 - diksteLijn); i++)
 144:RaceLogica.c  ****             {
 145:RaceLogica.c  ****                 uint8 test = compareValue & DataOrgineel;
ARM GAS  C:\Users\BASILE~1.BER\AppData\Local\Temp\ccHVrrq2.s 			page 12


 465              		.loc 1 145 0 is_stmt 1
 466 0078 0A4A     		ldr	r2, .L50+8
 467 007a 1278     		ldrb	r2, [r2]	@ zero_extendqisi2
 468              	.LVL60:
 146:RaceLogica.c  ****                 
 147:RaceLogica.c  ****                 if((compareValue & DataOrgineel) == compareValue) return compareValue;
 469              		.loc 1 147 0
 470 007c 34EA0202 		bics	r2, r4, r2
 471              	.LVL61:
 472 0080 09D0     		beq	.L48
 148:RaceLogica.c  ****                 compareValue = (compareValue << 1);
 473              		.loc 1 148 0 discriminator 2
 474 0082 6400     		lsls	r4, r4, #1
 475              	.LVL62:
 476 0084 E4B2     		uxtb	r4, r4
 477              	.LVL63:
 478              	.LBE14:
 143:RaceLogica.c  ****             {
 479              		.loc 1 143 0 discriminator 2
 480 0086 0133     		adds	r3, r3, #1
 481              	.LVL64:
 482 0088 DBB2     		uxtb	r3, r3
 483              	.LVL65:
 484              	.L44:
 143:RaceLogica.c  ****             {
 485              		.loc 1 143 0 is_stmt 0 discriminator 1
 486 008a C1F10802 		rsb	r2, r1, #8
 487 008e 9342     		cmp	r3, r2
 488 0090 F2DB     		blt	.L45
 489              	.LBE13:
 490              	.LBE17:
 149:RaceLogica.c  ****             }
 150:RaceLogica.c  ****         }
 151:RaceLogica.c  ****     return 0;
 491              		.loc 1 151 0 is_stmt 1
 492 0092 0020     		movs	r0, #0
 493              	.LBB18:
 494              	.LBB16:
 495 0094 70BD     		pop	{r4, r5, r6, pc}
 496              	.LVL66:
 497              	.L48:
 498              	.LBB15:
 147:RaceLogica.c  ****                 compareValue = (compareValue << 1);
 499              		.loc 1 147 0
 500 0096 2046     		mov	r0, r4
 501              	.LBE15:
 502              	.LBE16:
 503              	.LBE18:
 152:RaceLogica.c  **** }
 504              		.loc 1 152 0
 505 0098 70BD     		pop	{r4, r5, r6, pc}
 506              	.LVL67:
 507              	.L51:
 508 009a 00BF     		.align	2
 509              	.L50:
 510 009c 00000000 		.word	IRDigitaleWaarden
 511 00a0 00000000 		.word	Data
ARM GAS  C:\Users\BASILE~1.BER\AppData\Local\Temp\ccHVrrq2.s 			page 13


 512 00a4 00000000 		.word	DataOrgineel
 513              		.cfi_endproc
 514              	.LFE67:
 515              		.size	CheckVoor2eLijn, .-CheckVoor2eLijn
 516              		.section	.text.AnalyseerData,"ax",%progbits
 517              		.align	2
 518              		.global	AnalyseerData
 519              		.thumb
 520              		.thumb_func
 521              		.type	AnalyseerData, %function
 522              	AnalyseerData:
 523              	.LFB63:
  24:RaceLogica.c  ****     if ((data & 11000000) == 11000000 ) data = 0b10000000;
 524              		.loc 1 24 0
 525              		.cfi_startproc
 526              		@ args = 0, pretend = 0, frame = 0
 527              		@ frame_needed = 0, uses_anonymous_args = 0
 528              	.LVL68:
 529 0000 08B5     		push	{r3, lr}
 530              		.cfi_def_cfa_offset 8
 531              		.cfi_offset 3, -8
 532              		.cfi_offset 14, -4
  25:RaceLogica.c  ****     else if ((data & 00000011) == 00000011 ) data = 0b00000001;
 533              		.loc 1 25 0
 534 0002 0B4B     		ldr	r3, .L57
 535 0004 8343     		bics	r3, r3, r0
 536 0006 04D0     		beq	.L54
  26:RaceLogica.c  ****     DataOrgineel = data;
 537              		.loc 1 26 0
 538 0008 00F00903 		and	r3, r0, #9
 539 000c 092B     		cmp	r3, #9
 540 000e 03D1     		bne	.L53
 541 0010 01E0     		b	.L55
 542              	.L54:
  25:RaceLogica.c  ****     else if ((data & 00000011) == 00000011 ) data = 0b00000001;
 543              		.loc 1 25 0
 544 0012 8020     		movs	r0, #128
 545              	.LVL69:
 546 0014 00E0     		b	.L53
 547              	.LVL70:
 548              	.L55:
  26:RaceLogica.c  ****     DataOrgineel = data;
 549              		.loc 1 26 0
 550 0016 0120     		movs	r0, #1
 551              	.LVL71:
 552              	.L53:
  27:RaceLogica.c  ****     PlaatsIRWaardenInArray(DataOrgineel);
 553              		.loc 1 27 0
 554 0018 064B     		ldr	r3, .L57+4
 555 001a 1870     		strb	r0, [r3]
  28:RaceLogica.c  ****     Data = CheckVoor2eLijn();
 556              		.loc 1 28 0
 557 001c FFF7FEFF 		bl	PlaatsIRWaardenInArray
 558              	.LVL72:
  29:RaceLogica.c  ****     //printBINopLCD(DataOrgineel, 0);
 559              		.loc 1 29 0
 560 0020 FFF7FEFF 		bl	CheckVoor2eLijn
ARM GAS  C:\Users\BASILE~1.BER\AppData\Local\Temp\ccHVrrq2.s 			page 14


 561              	.LVL73:
 562 0024 044B     		ldr	r3, .L57+8
 563 0026 1870     		strb	r0, [r3]
  34:RaceLogica.c  **** }
 564              		.loc 1 34 0
 565 0028 FFF7FEFF 		bl	stuurMotorenBij
 566              	.LVL74:
 567 002c 08BD     		pop	{r3, pc}
 568              	.L58:
 569 002e 00BF     		.align	2
 570              	.L57:
 571 0030 C0D8A700 		.word	11000000
 572 0034 00000000 		.word	DataOrgineel
 573 0038 00000000 		.word	Data
 574              		.cfi_endproc
 575              	.LFE63:
 576              		.size	AnalyseerData, .-AnalyseerData
 577              		.comm	DataOrgineel,1,1
 578              		.comm	Data,1,1
 579              		.global	TweedeLijnGedetecteerd
 580              		.comm	IRDigitaleWaarden,8,4
 581              		.global	IRsensorGewicht
 582              		.comm	boolSelect,1,1
 583              		.comm	avgUS3,10,4
 584              		.comm	avgUS2,10,4
 585              		.comm	avgUS1,10,4
 586              		.comm	selectUS,1,1
 587              		.comm	mediaan,2,2
 588              		.comm	TestGetal,1,1
 589              		.comm	IRDrempel,1,1
 590              		.comm	IRWaarden,1,1
 591              		.comm	pwmMotorRechts,1,1
 592              		.comm	pwmMotorLinks,1,1
 593              		.data
 594              		.align	2
 595              		.set	.LANCHOR0,. + 0
 596              		.type	IRsensorGewicht, %object
 597              		.size	IRsensorGewicht, 8
 598              	IRsensorGewicht:
 599 0000 00       		.byte	0
 600 0001 64       		.byte	100
 601 0002 EB       		.byte	-21
 602 0003 FF       		.byte	-1
 603 0004 FF       		.byte	-1
 604 0005 EB       		.byte	-21
 605 0006 64       		.byte	100
 606 0007 00       		.byte	0
 607              		.bss
 608              		.type	TweedeLijnGedetecteerd, %object
 609              		.size	TweedeLijnGedetecteerd, 1
 610              	TweedeLijnGedetecteerd:
 611 0000 00       		.space	1
 612              		.text
 613              	.Letext0:
 614              		.file 2 "c:\\program files (x86)\\cypress\\psoc creator\\4.1\\psoc creator\\import\\gnu\\arm\\5.4.
 615              		.file 3 "c:\\program files (x86)\\cypress\\psoc creator\\4.1\\psoc creator\\import\\gnu\\arm\\5.4.
 616              		.file 4 "Generated_Source\\PSoC5/cytypes.h"
ARM GAS  C:\Users\BASILE~1.BER\AppData\Local\Temp\ccHVrrq2.s 			page 15


 617              		.file 5 "projectMain.h"
 618              		.file 6 "Generated_Source\\PSoC5/core_cm3.h"
 619              		.file 7 "Generated_Source\\PSoC5/LCD.h"