ARM GAS  C:\Users\BASILE~1.BER\AppData\Local\Temp\ccxfLYtz.s 			page 1


   1              		.syntax unified
   2              		.cpu cortex-m3
   3              		.fpu softvfp
   4              		.eabi_attribute 20, 1
   5              		.eabi_attribute 21, 1
   6              		.eabi_attribute 23, 3
   7              		.eabi_attribute 24, 1
   8              		.eabi_attribute 25, 1
   9              		.eabi_attribute 26, 1
  10              		.eabi_attribute 30, 1
  11              		.eabi_attribute 34, 1
  12              		.eabi_attribute 18, 4
  13              		.thumb
  14              		.syntax unified
  15              		.file	"Sensoren.c"
  16              		.text
  17              	.Ltext0:
  18              		.cfi_sections	.debug_frame
  19              		.section	.text.IRSensoren,"ax",%progbits
  20              		.align	2
  21              		.global	IRSensoren
  22              		.thumb
  23              		.thumb_func
  24              		.type	IRSensoren, %function
  25              	IRSensoren:
  26              	.LFB63:
  27              		.file 1 "Sensoren.c"
   1:Sensoren.c    **** /* ========================================
   2:Sensoren.c    ****  *
   3:Sensoren.c    ****  * Copyright YOUR COMPANY, THE YEAR
   4:Sensoren.c    ****  * All Rights Reserved
   5:Sensoren.c    ****  * UNPUBLISHED, LICENSED SOFTWARE.
   6:Sensoren.c    ****  *
   7:Sensoren.c    ****  * CONFIDENTIAL AND PROPRIETARY INFORMATION
   8:Sensoren.c    ****  * WHICH IS THE PROPERTY OF your company.
   9:Sensoren.c    ****  *
  10:Sensoren.c    ****  * ========================================
  11:Sensoren.c    **** */
  12:Sensoren.c    **** #include "projectMain.h"
  13:Sensoren.c    **** #include "project.h"
  14:Sensoren.c    **** 
  15:Sensoren.c    **** //Interupt "end of conversion" van SAR_ADC 
  16:Sensoren.c    **** CY_ISR(IRSensoren)
  17:Sensoren.c    **** {
  28              		.loc 1 17 0
  29              		.cfi_startproc
  30              		@ args = 0, pretend = 0, frame = 0
  31              		@ frame_needed = 0, uses_anonymous_args = 0
  32 0000 10B5     		push	{r4, lr}
  33              		.cfi_def_cfa_offset 8
  34              		.cfi_offset 4, -8
  35              		.cfi_offset 14, -4
  18:Sensoren.c    **** 	//uint8 tmpWaarden = IRWaarden;
  19:Sensoren.c    **** 	IRWaarden = 0;
  36              		.loc 1 19 0
  37 0002 0024     		movs	r4, #0
  38 0004 0B4B     		ldr	r3, .L6
ARM GAS  C:\Users\BASILE~1.BER\AppData\Local\Temp\ccxfLYtz.s 			page 2


  39 0006 1C70     		strb	r4, [r3]
  40              	.LVL0:
  41              	.LBB2:
  20:Sensoren.c    ****     for(int i = 0; i < 8; i++)
  42              		.loc 1 20 0
  43 0008 10E0     		b	.L2
  44              	.LVL1:
  45              	.L4:
  21:Sensoren.c    ****     {
  22:Sensoren.c    **** 	    if (ADC_IR_GetResult16(i) > IRDrempel)
  46              		.loc 1 22 0
  47 000a A0B2     		uxth	r0, r4
  48 000c FFF7FEFF 		bl	ADC_IR_GetResult16
  49              	.LVL2:
  50 0010 094B     		ldr	r3, .L6+4
  51 0012 1B78     		ldrb	r3, [r3]	@ zero_extendqisi2
  52 0014 9842     		cmp	r0, r3
  53 0016 08DD     		ble	.L3
  54              	.LBB3:
  23:Sensoren.c    **** 	    {
  24:Sensoren.c    **** 	        uint8 tmpWaarde = exponent(2,i); 
  55              		.loc 1 24 0
  56 0018 2146     		mov	r1, r4
  57 001a 0220     		movs	r0, #2
  58 001c FFF7FEFF 		bl	exponent
  59              	.LVL3:
  60 0020 C0B2     		uxtb	r0, r0
  61              	.LVL4:
  25:Sensoren.c    **** 	        IRWaarden = IRWaarden | tmpWaarde;
  62              		.loc 1 25 0
  63 0022 044A     		ldr	r2, .L6
  64 0024 1378     		ldrb	r3, [r2]	@ zero_extendqisi2
  65 0026 1843     		orrs	r0, r0, r3
  66              	.LVL5:
  67 0028 1070     		strb	r0, [r2]
  68              	.L3:
  69              	.LBE3:
  20:Sensoren.c    ****     {
  70              		.loc 1 20 0 discriminator 2
  71 002a 0134     		adds	r4, r4, #1
  72              	.LVL6:
  73              	.L2:
  20:Sensoren.c    ****     {
  74              		.loc 1 20 0 is_stmt 0 discriminator 1
  75 002c 072C     		cmp	r4, #7
  76 002e ECDD     		ble	.L4
  77              	.LBE2:
  26:Sensoren.c    **** 	    }   
  27:Sensoren.c    ****     }
  28:Sensoren.c    ****     //IRWaarden =~IRWaarden;
  29:Sensoren.c    **** }
  78              		.loc 1 29 0 is_stmt 1
  79 0030 10BD     		pop	{r4, pc}
  80              	.LVL7:
  81              	.L7:
  82 0032 00BF     		.align	2
  83              	.L6:
ARM GAS  C:\Users\BASILE~1.BER\AppData\Local\Temp\ccxfLYtz.s 			page 3


  84 0034 00000000 		.word	IRWaarden
  85 0038 00000000 		.word	IRDrempel
  86              		.cfi_endproc
  87              	.LFE63:
  88              		.size	IRSensoren, .-IRSensoren
  89              		.section	.text.readUSValue,"ax",%progbits
  90              		.align	2
  91              		.global	readUSValue
  92              		.thumb
  93              		.thumb_func
  94              		.type	readUSValue, %function
  95              	readUSValue:
  96              	.LFB64:
  30:Sensoren.c    **** 
  31:Sensoren.c    **** uint16 readUSValue(void)
  32:Sensoren.c    **** {
  97              		.loc 1 32 0
  98              		.cfi_startproc
  99              		@ args = 0, pretend = 0, frame = 0
 100              		@ frame_needed = 0, uses_anonymous_args = 0
 101 0000 08B5     		push	{r3, lr}
 102              		.cfi_def_cfa_offset 8
 103              		.cfi_offset 3, -8
 104              		.cfi_offset 14, -4
  33:Sensoren.c    **** 	while(statusEcho_Read() == 0)
 105              		.loc 1 33 0
 106 0002 08E0     		b	.L9
 107              	.L10:
  34:Sensoren.c    **** 		{
  35:Sensoren.c    **** 			TriggerReg_Write(1);
 108              		.loc 1 35 0
 109 0004 0120     		movs	r0, #1
 110 0006 FFF7FEFF 		bl	TriggerReg_Write
 111              	.LVL8:
  36:Sensoren.c    **** 			CyDelayUs(10);
 112              		.loc 1 36 0
 113 000a 0A20     		movs	r0, #10
 114 000c FFF7FEFF 		bl	CyDelayUs
 115              	.LVL9:
  37:Sensoren.c    **** 			TriggerReg_Write(0);
 116              		.loc 1 37 0
 117 0010 0020     		movs	r0, #0
 118 0012 FFF7FEFF 		bl	TriggerReg_Write
 119              	.LVL10:
 120              	.L9:
  33:Sensoren.c    **** 		{
 121              		.loc 1 33 0
 122 0016 FFF7FEFF 		bl	statusEcho_Read
 123              	.LVL11:
 124 001a 0028     		cmp	r0, #0
 125 001c F2D0     		beq	.L10
 126              	.L11:
  38:Sensoren.c    **** 		}
  39:Sensoren.c    **** 	while(statusEcho_Read() == 1){}
 127              		.loc 1 39 0 discriminator 1
 128 001e FFF7FEFF 		bl	statusEcho_Read
 129              	.LVL12:
ARM GAS  C:\Users\BASILE~1.BER\AppData\Local\Temp\ccxfLYtz.s 			page 4


 130 0022 0128     		cmp	r0, #1
 131 0024 FBD0     		beq	.L11
  40:Sensoren.c    **** 	return TimerUS_ReadCounter();
 132              		.loc 1 40 0
 133 0026 FFF7FEFF 		bl	TimerUS_ReadCounter
 134              	.LVL13:
  41:Sensoren.c    **** }
 135              		.loc 1 41 0
 136 002a 08BD     		pop	{r3, pc}
 137              		.cfi_endproc
 138              	.LFE64:
 139              		.size	readUSValue, .-readUSValue
 140              		.section	.text.schuifRegister,"ax",%progbits
 141              		.align	2
 142              		.global	schuifRegister
 143              		.thumb
 144              		.thumb_func
 145              		.type	schuifRegister, %function
 146              	schuifRegister:
 147              	.LFB65:
  42:Sensoren.c    **** 
  43:Sensoren.c    **** void schuifRegister(uint16 array[], uint16 newValue)
  44:Sensoren.c    **** {
 148              		.loc 1 44 0
 149              		.cfi_startproc
 150              		@ args = 0, pretend = 0, frame = 0
 151              		@ frame_needed = 0, uses_anonymous_args = 0
 152              		@ link register save eliminated.
 153              	.LVL14:
 154 0000 10B4     		push	{r4}
 155              		.cfi_def_cfa_offset 4
 156              		.cfi_offset 4, -4
 157              	.LVL15:
 158              	.LBB4:
  45:Sensoren.c    **** 	for(int i = 3; i >= 0; i--)
 159              		.loc 1 45 0
 160 0002 0323     		movs	r3, #3
 161 0004 06E0     		b	.L14
 162              	.LVL16:
 163              	.L15:
 164              	.LBB5:
  46:Sensoren.c    **** 	{
  47:Sensoren.c    **** 		uint16 tmpvalue = avgUS1[i];
 165              		.loc 1 47 0 discriminator 3
 166 0006 064A     		ldr	r2, .L17
 167 0008 32F81340 		ldrh	r4, [r2, r3, lsl #1]
 168              	.LVL17:
  48:Sensoren.c    **** 		array[i + 1] = tmpvalue;
 169              		.loc 1 48 0 discriminator 3
 170 000c 5A1C     		adds	r2, r3, #1
 171 000e 20F81240 		strh	r4, [r0, r2, lsl #1]	@ movhi
 172              	.LBE5:
  45:Sensoren.c    **** 	for(int i = 3; i >= 0; i--)
 173              		.loc 1 45 0 discriminator 3
 174 0012 013B     		subs	r3, r3, #1
 175              	.LVL18:
 176              	.L14:
ARM GAS  C:\Users\BASILE~1.BER\AppData\Local\Temp\ccxfLYtz.s 			page 5


  45:Sensoren.c    **** 	for(int i = 3; i >= 0; i--)
 177              		.loc 1 45 0 is_stmt 0 discriminator 1
 178 0014 002B     		cmp	r3, #0
 179 0016 F6DA     		bge	.L15
 180              	.LBE4:
  49:Sensoren.c    **** 	}
  50:Sensoren.c    **** 	array[0] = newValue;
 181              		.loc 1 50 0 is_stmt 1
 182 0018 0180     		strh	r1, [r0]	@ movhi
  51:Sensoren.c    **** }
 183              		.loc 1 51 0
 184 001a 10BC     		pop	{r4}
 185              		.cfi_restore 4
 186              		.cfi_def_cfa_offset 0
 187 001c 7047     		bx	lr
 188              	.L18:
 189 001e 00BF     		.align	2
 190              	.L17:
 191 0020 00000000 		.word	avgUS1
 192              		.cfi_endproc
 193              	.LFE65:
 194              		.size	schuifRegister, .-schuifRegister
 195              		.section	.text.berekenMediaan,"ax",%progbits
 196              		.align	2
 197              		.global	berekenMediaan
 198              		.thumb
 199              		.thumb_func
 200              		.type	berekenMediaan, %function
 201              	berekenMediaan:
 202              	.LFB66:
  52:Sensoren.c    **** 
  53:Sensoren.c    **** void berekenMediaan(uint16 array[]) 
  54:Sensoren.c    **** { 
 203              		.loc 1 54 0
 204              		.cfi_startproc
 205              		@ args = 0, pretend = 0, frame = 16
 206              		@ frame_needed = 0, uses_anonymous_args = 0
 207              		@ link register save eliminated.
 208              	.LVL19:
 209 0000 10B4     		push	{r4}
 210              		.cfi_def_cfa_offset 4
 211              		.cfi_offset 4, -4
 212 0002 85B0     		sub	sp, sp, #20
 213              		.cfi_def_cfa_offset 24
 214 0004 0446     		mov	r4, r0
  55:Sensoren.c    **** 	//uint16 tmp = 0;
  56:Sensoren.c    **** 	uint16 tmpArray[] = {UINT16_MAX,UINT16_MAX,UINT16_MAX,UINT16_MAX,UINT16_MAX};
 215              		.loc 1 56 0
 216 0006 134A     		ldr	r2, .L26
 217 0008 01AB     		add	r3, sp, #4
 218 000a 1068     		ldr	r0, [r2]	@ unaligned
 219              	.LVL20:
 220 000c 5168     		ldr	r1, [r2, #4]	@ unaligned
 221 000e 03C3     		stmia	r3!, {r0, r1}
 222 0010 1289     		ldrh	r2, [r2, #8]	@ unaligned
 223 0012 1A80     		strh	r2, [r3]	@ unaligned
 224              	.LVL21:
ARM GAS  C:\Users\BASILE~1.BER\AppData\Local\Temp\ccxfLYtz.s 			page 6


 225              	.LBB6:
  57:Sensoren.c    **** 	for(int i = 0; i < 5; i++)
 226              		.loc 1 57 0
 227 0014 0021     		movs	r1, #0
 228 0016 13E0     		b	.L20
 229              	.LVL22:
 230              	.L22:
 231              	.LBB7:
  58:Sensoren.c    **** 	{
  59:Sensoren.c    **** 		for(int j = 0; j < 5; j++) 
  60:Sensoren.c    **** 		{
  61:Sensoren.c    **** 			if (array[j] < tmpArray[i]) tmpArray[i] = array[j];
 232              		.loc 1 61 0
 233 0018 34F81320 		ldrh	r2, [r4, r3, lsl #1]
 234 001c 04A8     		add	r0, sp, #16
 235 001e 00EB4100 		add	r0, r0, r1, lsl #1
 236 0022 30F80C0C 		ldrh	r0, [r0, #-12]
 237 0026 8242     		cmp	r2, r0
 238 0028 04D2     		bcs	.L21
 239              		.loc 1 61 0 is_stmt 0 discriminator 1
 240 002a 04A8     		add	r0, sp, #16
 241 002c 00EB4100 		add	r0, r0, r1, lsl #1
 242 0030 20F80C2C 		strh	r2, [r0, #-12]	@ movhi
 243              	.L21:
  59:Sensoren.c    **** 		{
 244              		.loc 1 59 0 is_stmt 1 discriminator 2
 245 0034 0133     		adds	r3, r3, #1
 246              	.LVL23:
 247 0036 00E0     		b	.L23
 248              	.LVL24:
 249              	.L24:
 250              	.LBE7:
 251 0038 0023     		movs	r3, #0
 252              	.L23:
 253              	.LVL25:
 254              	.LBB8:
  59:Sensoren.c    **** 		{
 255              		.loc 1 59 0 is_stmt 0 discriminator 1
 256 003a 042B     		cmp	r3, #4
 257 003c ECDD     		ble	.L22
 258              	.LBE8:
  57:Sensoren.c    **** 	for(int i = 0; i < 5; i++)
 259              		.loc 1 57 0 is_stmt 1 discriminator 2
 260 003e 0131     		adds	r1, r1, #1
 261              	.LVL26:
 262              	.L20:
  57:Sensoren.c    **** 	for(int i = 0; i < 5; i++)
 263              		.loc 1 57 0 is_stmt 0 discriminator 1
 264 0040 0429     		cmp	r1, #4
 265 0042 F9DD     		ble	.L24
 266              	.LBE6:
  62:Sensoren.c    **** 		}
  63:Sensoren.c    **** 	}
  64:Sensoren.c    **** 	mediaan = tmpArray[3];
 267              		.loc 1 64 0 is_stmt 1
 268 0044 BDF80A20 		ldrh	r2, [sp, #10]
 269 0048 034B     		ldr	r3, .L26+4
ARM GAS  C:\Users\BASILE~1.BER\AppData\Local\Temp\ccxfLYtz.s 			page 7


 270 004a 1A80     		strh	r2, [r3]	@ movhi
  65:Sensoren.c    **** }  
 271              		.loc 1 65 0
 272 004c 05B0     		add	sp, sp, #20
 273              		.cfi_def_cfa_offset 4
 274              		@ sp needed
 275 004e 10BC     		pop	{r4}
 276              		.cfi_restore 4
 277              		.cfi_def_cfa_offset 0
 278              	.LVL27:
 279 0050 7047     		bx	lr
 280              	.L27:
 281 0052 00BF     		.align	2
 282              	.L26:
 283 0054 00000000 		.word	.LANCHOR0
 284 0058 00000000 		.word	mediaan
 285              		.cfi_endproc
 286              	.LFE66:
 287              		.size	berekenMediaan, .-berekenMediaan
 288              		.comm	boolSelect,1,1
 289              		.comm	avgUS3,10,4
 290              		.comm	avgUS2,10,4
 291              		.comm	avgUS1,10,4
 292              		.comm	selectUS,1,1
 293              		.comm	mediaan,2,2
 294              		.comm	TestGetal,1,1
 295              		.comm	IRDrempel,1,1
 296              		.comm	IRWaarden,1,1
 297              		.comm	pwmMotorRechts,1,1
 298              		.comm	pwmMotorLinks,1,1
 299              		.section	.rodata
 300              		.align	2
 301              		.set	.LANCHOR0,. + 0
 302              	.LC0:
 303 0000 FFFF     		.short	-1
 304 0002 FFFF     		.short	-1
 305 0004 FFFF     		.short	-1
 306 0006 FFFF     		.short	-1
 307 0008 FFFF     		.short	-1
 308              		.text
 309              	.Letext0:
 310              		.file 2 "c:\\program files (x86)\\cypress\\psoc creator\\4.1\\psoc creator\\import\\gnu\\arm\\5.4.
 311              		.file 3 "c:\\program files (x86)\\cypress\\psoc creator\\4.1\\psoc creator\\import\\gnu\\arm\\5.4.
 312              		.file 4 "Generated_Source\\PSoC5/cytypes.h"
 313              		.file 5 "projectMain.h"
 314              		.file 6 "Generated_Source\\PSoC5/core_cm3.h"
 315              		.file 7 "Generated_Source\\PSoC5/ADC_IR.h"
 316              		.file 8 "Generated_Source\\PSoC5/TriggerReg.h"
 317              		.file 9 "Generated_Source\\PSoC5/CyLib.h"
 318              		.file 10 "Generated_Source\\PSoC5/statusEcho.h"
 319              		.file 11 "Generated_Source\\PSoC5/TimerUS.h"