ARM GAS  C:\Users\BASILE~1.BER\AppData\Local\Temp\ccY4DWY4.s 			page 1


   1              		.syntax unified
   2              		.cpu cortex-m3
   3              		.fpu softvfp
   4              		.eabi_attribute 20, 1
   5              		.eabi_attribute 21, 1
   6              		.eabi_attribute 23, 3
   7              		.eabi_attribute 24, 1
   8              		.eabi_attribute 25, 1
   9              		.eabi_attribute 26, 1
  10              		.eabi_attribute 30, 1
  11              		.eabi_attribute 34, 1
  12              		.eabi_attribute 18, 4
  13              		.thumb
  14              		.syntax unified
  15              		.file	"BleCommunicatie.c"
  16              		.text
  17              	.Ltext0:
  18              		.cfi_sections	.debug_frame
  19              		.section	.text.sendBleData,"ax",%progbits
  20              		.align	2
  21              		.global	sendBleData
  22              		.thumb
  23              		.thumb_func
  24              		.type	sendBleData, %function
  25              	sendBleData:
  26              	.LFB64:
  27              		.file 1 "BleCommunicatie.c"
   1:BleCommunicatie.c **** /* ========================================
   2:BleCommunicatie.c ****  *
   3:BleCommunicatie.c ****  * Copyright YOUR COMPANY, THE YEAR
   4:BleCommunicatie.c ****  * All Rights Reserved
   5:BleCommunicatie.c ****  * UNPUBLISHED, LICENSED SOFTWARE.
   6:BleCommunicatie.c ****  *
   7:BleCommunicatie.c ****  * CONFIDENTIAL AND PROPRIETARY INFORMATION
   8:BleCommunicatie.c ****  * WHICH IS THE PROPERTY OF your company.
   9:BleCommunicatie.c ****  *
  10:BleCommunicatie.c ****  * ========================================
  11:BleCommunicatie.c **** */
  12:BleCommunicatie.c **** 
  13:BleCommunicatie.c **** #include "projectMain.h"
  14:BleCommunicatie.c **** #include "project.h"
  15:BleCommunicatie.c **** #include <string.h>
  16:BleCommunicatie.c **** //#include <stdlib.h> //atoi
  17:BleCommunicatie.c **** #include <stdio.h> 
  18:BleCommunicatie.c **** #include <myUART.h>
  19:BleCommunicatie.c ****  
  20:BleCommunicatie.c **** //Timer gestuurde interupt zodat data om de zoveel tijd verstuurd wordt via bluetooth
  21:BleCommunicatie.c **** CY_ISR(sendBleData)
  22:BleCommunicatie.c **** {
  28              		.loc 1 22 0
  29              		.cfi_startproc
  30              		@ args = 0, pretend = 0, frame = 16
  31              		@ frame_needed = 0, uses_anonymous_args = 0
  32 0000 00B5     		push	{lr}
  33              		.cfi_def_cfa_offset 4
  34              		.cfi_offset 14, -4
  35 0002 85B0     		sub	sp, sp, #20
ARM GAS  C:\Users\BASILE~1.BER\AppData\Local\Temp\ccY4DWY4.s 			page 2


  36              		.cfi_def_cfa_offset 24
  23:BleCommunicatie.c ****     //Buffer
  24:BleCommunicatie.c **** 	char strBuffer[10];
  25:BleCommunicatie.c **** 	LED1_Write(~LED1_Read());
  37              		.loc 1 25 0
  38 0004 FFF7FEFF 		bl	LED1_Read
  39              	.LVL0:
  40 0008 C043     		mvns	r0, r0
  41 000a C0B2     		uxtb	r0, r0
  42 000c FFF7FEFF 		bl	LED1_Write
  43              	.LVL1:
  26:BleCommunicatie.c ****     
  27:BleCommunicatie.c **** 	sprintf(strBuffer, "T/%X/\r", 77); 
  44              		.loc 1 27 0
  45 0010 4D22     		movs	r2, #77
  46 0012 0549     		ldr	r1, .L3
  47 0014 01A8     		add	r0, sp, #4
  48 0016 FFF7FEFF 		bl	sprintf
  49              	.LVL2:
  28:BleCommunicatie.c **** 	BleUart_PutString(strBuffer);
  50              		.loc 1 28 0
  51 001a 01A8     		add	r0, sp, #4
  52 001c FFF7FEFF 		bl	BleUart_PutString
  53              	.LVL3:
  29:BleCommunicatie.c **** }
  54              		.loc 1 29 0
  55 0020 05B0     		add	sp, sp, #20
  56              		.cfi_def_cfa_offset 4
  57              		@ sp needed
  58 0022 5DF804FB 		ldr	pc, [sp], #4
  59              	.L4:
  60 0026 00BF     		.align	2
  61              	.L3:
  62 0028 00000000 		.word	.LC0
  63              		.cfi_endproc
  64              	.LFE64:
  65              		.size	sendBleData, .-sendBleData
  66              		.section	.text.HexToDec,"ax",%progbits
  67              		.align	2
  68              		.global	HexToDec
  69              		.thumb
  70              		.thumb_func
  71              		.type	HexToDec, %function
  72              	HexToDec:
  73              	.LFB67:
  30:BleCommunicatie.c **** 
  31:BleCommunicatie.c **** void ProcessCommandMsg(void)
  32:BleCommunicatie.c **** {
  33:BleCommunicatie.c ****     LCD_ClearDisplay();
  34:BleCommunicatie.c ****     char hexBuffer[2];
  35:BleCommunicatie.c ****     //Voorbeeld commando R/FF/
  36:BleCommunicatie.c ****     //RB.cmd is de eerste waarde dus in dit voorbeeld R
  37:BleCommunicatie.c ****     //RB.valstr = alles wat erna komt dus /FF/
  38:BleCommunicatie.c **** 
  39:BleCommunicatie.c **** 	if (RB.cmd == 'X')
  40:BleCommunicatie.c **** 	{  
  41:BleCommunicatie.c **** 		ValueX = getCMDValue('/', RB.valstr, hexBuffer);
ARM GAS  C:\Users\BASILE~1.BER\AppData\Local\Temp\ccY4DWY4.s 			page 3


  42:BleCommunicatie.c **** 	} 
  43:BleCommunicatie.c **** 	else if (RB.cmd == 'Y')
  44:BleCommunicatie.c **** 	{
  45:BleCommunicatie.c **** 		ValueY = getCMDValue('/', RB.valstr, hexBuffer);
  46:BleCommunicatie.c **** 	}
  47:BleCommunicatie.c **** 	else if (RB.cmd == 'M')
  48:BleCommunicatie.c **** 	{
  49:BleCommunicatie.c **** 		uint8 enable = getCMDValue('/', RB.valstr, hexBuffer);
  50:BleCommunicatie.c **** 		ENA_Write(enable);
  51:BleCommunicatie.c **** 		ENB_Write(enable);
  52:BleCommunicatie.c **** 	}
  53:BleCommunicatie.c **** }
  54:BleCommunicatie.c **** 
  55:BleCommunicatie.c **** //methode die een waarde uit een commando haalt
  56:BleCommunicatie.c **** //delimiter zijn de karakters waar de waarde tussen staat 
  57:BleCommunicatie.c **** //bvb delimiter is '/' en commando is R/FF/ dan is de return FF
  58:BleCommunicatie.c **** uint8 getCMDValue(char delimiter, char str[], char hexBuffer[])
  59:BleCommunicatie.c **** {
  60:BleCommunicatie.c ****     if (strlen(str) == 4)
  61:BleCommunicatie.c ****     {
  62:BleCommunicatie.c ****         for (uint i = 0; i < strlen(str); i++)
  63:BleCommunicatie.c **** 		{
  64:BleCommunicatie.c **** 			if (str[i] == delimiter && str[i+3] == delimiter)
  65:BleCommunicatie.c **** 			{
  66:BleCommunicatie.c **** 				hexBuffer[0] = str[i+1];
  67:BleCommunicatie.c **** 				hexBuffer[1] = str[i+2];
  68:BleCommunicatie.c ****                    
  69:BleCommunicatie.c **** 			}    
  70:BleCommunicatie.c **** 		}
  71:BleCommunicatie.c ****     } 
  72:BleCommunicatie.c ****     else if (strlen(str) == 3)
  73:BleCommunicatie.c ****     {
  74:BleCommunicatie.c ****         for (uint i = 0; i < strlen(str); i++)
  75:BleCommunicatie.c **** 		{
  76:BleCommunicatie.c **** 			if (str[i] == delimiter && str[i+2] == delimiter)
  77:BleCommunicatie.c **** 			{
  78:BleCommunicatie.c **** 				hexBuffer[0] = str[0];
  79:BleCommunicatie.c **** 				hexBuffer[1] = str[i+1];
  80:BleCommunicatie.c ****                    
  81:BleCommunicatie.c **** 			}    
  82:BleCommunicatie.c **** 		}
  83:BleCommunicatie.c ****     }
  84:BleCommunicatie.c **** 	return HexToDec(hexBuffer);
  85:BleCommunicatie.c **** }
  86:BleCommunicatie.c **** 
  87:BleCommunicatie.c **** //Zet een getal om van HEX naar dec
  88:BleCommunicatie.c **** uint8 HexToDec(char hexVal[])
  89:BleCommunicatie.c **** {
  74              		.loc 1 89 0
  75              		.cfi_startproc
  76              		@ args = 0, pretend = 0, frame = 0
  77              		@ frame_needed = 0, uses_anonymous_args = 0
  78              	.LVL4:
  79 0000 38B5     		push	{r3, r4, r5, lr}
  80              		.cfi_def_cfa_offset 16
  81              		.cfi_offset 3, -16
  82              		.cfi_offset 4, -12
ARM GAS  C:\Users\BASILE~1.BER\AppData\Local\Temp\ccY4DWY4.s 			page 4


  83              		.cfi_offset 5, -8
  84              		.cfi_offset 14, -4
  85 0002 0446     		mov	r4, r0
  90:BleCommunicatie.c **** 	uint8 len = strlen(hexVal);
  86              		.loc 1 90 0
  87 0004 FFF7FEFF 		bl	strlen
  88              	.LVL5:
  89              	.LBB2:
  91:BleCommunicatie.c **** 	uint base = 1;
  92:BleCommunicatie.c **** 	uint dec_val =0;
  93:BleCommunicatie.c **** 	for (int i=len-1; i>=0; i--)
  90              		.loc 1 93 0
  91 0008 C0B2     		uxtb	r0, r0
  92 000a 421E     		subs	r2, r0, #1
  93              	.LVL6:
  94              	.LBE2:
  92:BleCommunicatie.c **** 	for (int i=len-1; i>=0; i--)
  95              		.loc 1 92 0
  96 000c 0020     		movs	r0, #0
  97              	.LVL7:
  91:BleCommunicatie.c **** 	uint base = 1;
  98              		.loc 1 91 0
  99 000e 0125     		movs	r5, #1
 100              	.LBB3:
 101              		.loc 1 93 0
 102 0010 14E0     		b	.L6
 103              	.LVL8:
 104              	.L9:
  94:BleCommunicatie.c **** 	{
  95:BleCommunicatie.c **** 		if (hexVal[i] >= '0' && hexVal[i] <='9')
 105              		.loc 1 95 0
 106 0012 A35C     		ldrb	r3, [r4, r2]	@ zero_extendqisi2
 107 0014 A3F13001 		sub	r1, r3, #48
 108 0018 C9B2     		uxtb	r1, r1
 109 001a 0929     		cmp	r1, #9
 110 001c 04D8     		bhi	.L7
  96:BleCommunicatie.c **** 		{
  97:BleCommunicatie.c **** 		 dec_val += (hexVal[i] - 48) * base;
 111              		.loc 1 97 0
 112 001e 303B     		subs	r3, r3, #48
 113 0020 05FB0300 		mla	r0, r5, r3, r0
 114              	.LVL9:
  98:BleCommunicatie.c **** 		 base = base*16;   
 115              		.loc 1 98 0
 116 0024 2D01     		lsls	r5, r5, #4
 117              	.LVL10:
 118 0026 08E0     		b	.L8
 119              	.L7:
  99:BleCommunicatie.c **** 		} else if (hexVal[i]>='A' && hexVal[i]<='F')
 120              		.loc 1 99 0
 121 0028 A3F14101 		sub	r1, r3, #65
 122 002c C9B2     		uxtb	r1, r1
 123 002e 0529     		cmp	r1, #5
 124 0030 03D8     		bhi	.L8
 100:BleCommunicatie.c **** 		{
 101:BleCommunicatie.c **** 			dec_val += (hexVal[i] - 55)*base;
 125              		.loc 1 101 0
ARM GAS  C:\Users\BASILE~1.BER\AppData\Local\Temp\ccY4DWY4.s 			page 5


 126 0032 373B     		subs	r3, r3, #55
 127 0034 05FB0300 		mla	r0, r5, r3, r0
 128              	.LVL11:
 102:BleCommunicatie.c **** 			base = base*16;
 129              		.loc 1 102 0
 130 0038 2D01     		lsls	r5, r5, #4
 131              	.LVL12:
 132              	.L8:
  93:BleCommunicatie.c **** 	{
 133              		.loc 1 93 0 discriminator 2
 134 003a 013A     		subs	r2, r2, #1
 135              	.LVL13:
 136              	.L6:
  93:BleCommunicatie.c **** 	{
 137              		.loc 1 93 0 is_stmt 0 discriminator 1
 138 003c 002A     		cmp	r2, #0
 139 003e E8DA     		bge	.L9
 140              	.LBE3:
 103:BleCommunicatie.c **** 		}
 104:BleCommunicatie.c **** 	}
 105:BleCommunicatie.c **** 	return dec_val;
 106:BleCommunicatie.c **** }
 141              		.loc 1 106 0 is_stmt 1
 142 0040 C0B2     		uxtb	r0, r0
 143              	.LVL14:
 144 0042 38BD     		pop	{r3, r4, r5, pc}
 145              		.cfi_endproc
 146              	.LFE67:
 147              		.size	HexToDec, .-HexToDec
 148              		.section	.text.getCMDValue,"ax",%progbits
 149              		.align	2
 150              		.global	getCMDValue
 151              		.thumb
 152              		.thumb_func
 153              		.type	getCMDValue, %function
 154              	getCMDValue:
 155              	.LFB66:
  59:BleCommunicatie.c ****     if (strlen(str) == 4)
 156              		.loc 1 59 0
 157              		.cfi_startproc
 158              		@ args = 0, pretend = 0, frame = 0
 159              		@ frame_needed = 0, uses_anonymous_args = 0
 160              	.LVL15:
 161 0000 F8B5     		push	{r3, r4, r5, r6, r7, lr}
 162              		.cfi_def_cfa_offset 24
 163              		.cfi_offset 3, -24
 164              		.cfi_offset 4, -20
 165              		.cfi_offset 5, -16
 166              		.cfi_offset 6, -12
 167              		.cfi_offset 7, -8
 168              		.cfi_offset 14, -4
 169 0002 0646     		mov	r6, r0
 170 0004 0C46     		mov	r4, r1
 171 0006 1746     		mov	r7, r2
  60:BleCommunicatie.c ****     {
 172              		.loc 1 60 0
 173 0008 0846     		mov	r0, r1
ARM GAS  C:\Users\BASILE~1.BER\AppData\Local\Temp\ccY4DWY4.s 			page 6


 174              	.LVL16:
 175 000a FFF7FEFF 		bl	strlen
 176              	.LVL17:
 177 000e 0428     		cmp	r0, #4
 178 0010 15D1     		bne	.L22
 179 0012 0DE0     		b	.L20
 180              	.LVL18:
 181              	.L15:
 182              	.LBB4:
  64:BleCommunicatie.c **** 			{
 183              		.loc 1 64 0
 184 0014 635D     		ldrb	r3, [r4, r5]	@ zero_extendqisi2
 185 0016 B342     		cmp	r3, r6
 186 0018 08D1     		bne	.L14
  64:BleCommunicatie.c **** 			{
 187              		.loc 1 64 0 is_stmt 0 discriminator 1
 188 001a EB1C     		adds	r3, r5, #3
 189 001c E35C     		ldrb	r3, [r4, r3]	@ zero_extendqisi2
 190 001e 9E42     		cmp	r6, r3
 191 0020 04D1     		bne	.L14
  66:BleCommunicatie.c **** 				hexBuffer[1] = str[i+2];
 192              		.loc 1 66 0 is_stmt 1
 193 0022 6319     		adds	r3, r4, r5
 194 0024 5A78     		ldrb	r2, [r3, #1]	@ zero_extendqisi2
 195 0026 3A70     		strb	r2, [r7]
  67:BleCommunicatie.c ****                    
 196              		.loc 1 67 0
 197 0028 9B78     		ldrb	r3, [r3, #2]	@ zero_extendqisi2
 198 002a 7B70     		strb	r3, [r7, #1]
 199              	.L14:
  62:BleCommunicatie.c **** 		{
 200              		.loc 1 62 0 discriminator 2
 201 002c 0135     		adds	r5, r5, #1
 202              	.LVL19:
 203 002e 00E0     		b	.L12
 204              	.LVL20:
 205              	.L20:
 206              	.LBE4:
 207 0030 0025     		movs	r5, #0
 208              	.L12:
 209              	.LVL21:
 210              	.LBB5:
  62:BleCommunicatie.c **** 		{
 211              		.loc 1 62 0 is_stmt 0 discriminator 1
 212 0032 2046     		mov	r0, r4
 213 0034 FFF7FEFF 		bl	strlen
 214              	.LVL22:
 215 0038 8542     		cmp	r5, r0
 216 003a EBD3     		bcc	.L15
 217 003c 16E0     		b	.L16
 218              	.LVL23:
 219              	.L22:
 220              	.LBE5:
  72:BleCommunicatie.c ****     {
 221              		.loc 1 72 0 is_stmt 1
 222 003e 0328     		cmp	r0, #3
 223 0040 14D1     		bne	.L16
ARM GAS  C:\Users\BASILE~1.BER\AppData\Local\Temp\ccY4DWY4.s 			page 7


 224 0042 0DE0     		b	.L21
 225              	.LVL24:
 226              	.L19:
 227              	.LBB6:
  76:BleCommunicatie.c **** 			{
 228              		.loc 1 76 0
 229 0044 635D     		ldrb	r3, [r4, r5]	@ zero_extendqisi2
 230 0046 9E42     		cmp	r6, r3
 231 0048 08D1     		bne	.L18
  76:BleCommunicatie.c **** 			{
 232              		.loc 1 76 0 is_stmt 0 discriminator 1
 233 004a AB1C     		adds	r3, r5, #2
 234 004c E35C     		ldrb	r3, [r4, r3]	@ zero_extendqisi2
 235 004e 9E42     		cmp	r6, r3
 236 0050 04D1     		bne	.L18
  78:BleCommunicatie.c **** 				hexBuffer[1] = str[i+1];
 237              		.loc 1 78 0 is_stmt 1
 238 0052 2378     		ldrb	r3, [r4]	@ zero_extendqisi2
 239 0054 3B70     		strb	r3, [r7]
  79:BleCommunicatie.c ****                    
 240              		.loc 1 79 0
 241 0056 6319     		adds	r3, r4, r5
 242 0058 5B78     		ldrb	r3, [r3, #1]	@ zero_extendqisi2
 243 005a 7B70     		strb	r3, [r7, #1]
 244              	.L18:
  74:BleCommunicatie.c **** 		{
 245              		.loc 1 74 0 discriminator 2
 246 005c 0135     		adds	r5, r5, #1
 247              	.LVL25:
 248 005e 00E0     		b	.L17
 249              	.LVL26:
 250              	.L21:
 251              	.LBE6:
 252 0060 0025     		movs	r5, #0
 253              	.L17:
 254              	.LVL27:
 255              	.LBB7:
  74:BleCommunicatie.c **** 		{
 256              		.loc 1 74 0 is_stmt 0 discriminator 1
 257 0062 2046     		mov	r0, r4
 258 0064 FFF7FEFF 		bl	strlen
 259              	.LVL28:
 260 0068 8542     		cmp	r5, r0
 261 006a EBD3     		bcc	.L19
 262              	.LVL29:
 263              	.L16:
 264              	.LBE7:
  84:BleCommunicatie.c **** }
 265              		.loc 1 84 0 is_stmt 1
 266 006c 3846     		mov	r0, r7
 267 006e FFF7FEFF 		bl	HexToDec
 268              	.LVL30:
  85:BleCommunicatie.c **** 
 269              		.loc 1 85 0
 270 0072 F8BD     		pop	{r3, r4, r5, r6, r7, pc}
 271              		.cfi_endproc
 272              	.LFE66:
ARM GAS  C:\Users\BASILE~1.BER\AppData\Local\Temp\ccY4DWY4.s 			page 8


 273              		.size	getCMDValue, .-getCMDValue
 274              		.section	.text.ProcessCommandMsg,"ax",%progbits
 275              		.align	2
 276              		.global	ProcessCommandMsg
 277              		.thumb
 278              		.thumb_func
 279              		.type	ProcessCommandMsg, %function
 280              	ProcessCommandMsg:
 281              	.LFB65:
  32:BleCommunicatie.c ****     LCD_ClearDisplay();
 282              		.loc 1 32 0
 283              		.cfi_startproc
 284              		@ args = 0, pretend = 0, frame = 8
 285              		@ frame_needed = 0, uses_anonymous_args = 0
 286 0000 10B5     		push	{r4, lr}
 287              		.cfi_def_cfa_offset 8
 288              		.cfi_offset 4, -8
 289              		.cfi_offset 14, -4
 290 0002 82B0     		sub	sp, sp, #8
 291              		.cfi_def_cfa_offset 16
  33:BleCommunicatie.c ****     char hexBuffer[2];
 292              		.loc 1 33 0
 293 0004 0120     		movs	r0, #1
 294 0006 FFF7FEFF 		bl	LCD_WriteControl
 295              	.LVL31:
  39:BleCommunicatie.c **** 	{  
 296              		.loc 1 39 0
 297 000a 124B     		ldr	r3, .L29
 298 000c 1B78     		ldrb	r3, [r3]	@ zero_extendqisi2
 299 000e 582B     		cmp	r3, #88
 300 0010 07D1     		bne	.L25
  41:BleCommunicatie.c **** 	} 
 301              		.loc 1 41 0
 302 0012 01AA     		add	r2, sp, #4
 303 0014 1049     		ldr	r1, .L29+4
 304 0016 2F20     		movs	r0, #47
 305 0018 FFF7FEFF 		bl	getCMDValue
 306              	.LVL32:
 307 001c 0F4B     		ldr	r3, .L29+8
 308 001e 1870     		strb	r0, [r3]
 309 0020 16E0     		b	.L24
 310              	.L25:
  43:BleCommunicatie.c **** 	{
 311              		.loc 1 43 0
 312 0022 592B     		cmp	r3, #89
 313 0024 07D1     		bne	.L27
  45:BleCommunicatie.c **** 	}
 314              		.loc 1 45 0
 315 0026 01AA     		add	r2, sp, #4
 316 0028 0B49     		ldr	r1, .L29+4
 317 002a 2F20     		movs	r0, #47
 318 002c FFF7FEFF 		bl	getCMDValue
 319              	.LVL33:
 320 0030 0B4B     		ldr	r3, .L29+12
 321 0032 1870     		strb	r0, [r3]
 322 0034 0CE0     		b	.L24
 323              	.L27:
ARM GAS  C:\Users\BASILE~1.BER\AppData\Local\Temp\ccY4DWY4.s 			page 9


  47:BleCommunicatie.c **** 	{
 324              		.loc 1 47 0
 325 0036 4D2B     		cmp	r3, #77
 326 0038 0AD1     		bne	.L24
 327              	.LBB8:
  49:BleCommunicatie.c **** 		ENA_Write(enable);
 328              		.loc 1 49 0
 329 003a 01AA     		add	r2, sp, #4
 330 003c 0649     		ldr	r1, .L29+4
 331 003e 2F20     		movs	r0, #47
 332 0040 FFF7FEFF 		bl	getCMDValue
 333              	.LVL34:
 334 0044 0446     		mov	r4, r0
 335              	.LVL35:
  50:BleCommunicatie.c **** 		ENB_Write(enable);
 336              		.loc 1 50 0
 337 0046 FFF7FEFF 		bl	ENA_Write
 338              	.LVL36:
  51:BleCommunicatie.c **** 	}
 339              		.loc 1 51 0
 340 004a 2046     		mov	r0, r4
 341 004c FFF7FEFF 		bl	ENB_Write
 342              	.LVL37:
 343              	.L24:
 344              	.LBE8:
  53:BleCommunicatie.c **** 
 345              		.loc 1 53 0
 346 0050 02B0     		add	sp, sp, #8
 347              		.cfi_def_cfa_offset 8
 348              		@ sp needed
 349 0052 10BD     		pop	{r4, pc}
 350              	.L30:
 351              		.align	2
 352              	.L29:
 353 0054 00000000 		.word	RB
 354 0058 01000000 		.word	RB+1
 355 005c 00000000 		.word	ValueX
 356 0060 00000000 		.word	ValueY
 357              		.cfi_endproc
 358              	.LFE65:
 359              		.size	ProcessCommandMsg, .-ProcessCommandMsg
 360              		.comm	RB,20,4
 361              		.comm	ValueY,1,1
 362              		.comm	ValueX,1,1
 363              		.comm	pwmMotorRechts,1,1
 364              		.comm	pwmMotorLinks,1,1
 365              		.comm	strMsg1,64,4
 366              		.section	.rodata.str1.4,"aMS",%progbits,1
 367              		.align	2
 368              	.LC0:
 369 0000 542F2558 		.ascii	"T/%X/\015\000"
 369      2F0D00
 370              		.text
 371              	.Letext0:
 372              		.file 2 "c:\\program files (x86)\\cypress\\psoc creator\\4.2\\psoc creator\\import\\gnu\\arm\\5.4.
 373              		.file 3 "c:\\program files (x86)\\cypress\\psoc creator\\4.2\\psoc creator\\import\\gnu\\arm\\5.4.
 374              		.file 4 "Generated_Source\\PSoC5/cytypes.h"
ARM GAS  C:\Users\BASILE~1.BER\AppData\Local\Temp\ccY4DWY4.s 			page 10


 375              		.file 5 "c:\\program files (x86)\\cypress\\psoc creator\\4.2\\psoc creator\\import\\gnu\\arm\\5.4.
 376              		.file 6 "projectMain.h"
 377              		.file 7 "Generated_Source\\PSoC5/core_cm3.h"
 378              		.file 8 "Generated_Source\\PSoC5/LED1.h"
 379              		.file 9 "c:\\program files (x86)\\cypress\\psoc creator\\4.2\\psoc creator\\import\\gnu\\arm\\5.4.
 380              		.file 10 "Generated_Source\\PSoC5/BleUart.h"
 381              		.file 11 "c:\\program files (x86)\\cypress\\psoc creator\\4.2\\psoc creator\\import\\gnu\\arm\\5.4
 382              		.file 12 "Generated_Source\\PSoC5/ENA.h"
 383              		.file 13 "Generated_Source\\PSoC5/ENB.h"
 384              		.file 14 "Generated_Source\\PSoC5/LCD.h"
 385              		.file 15 "./myUART.h"